<*GNU-Linker-generated-mapfile*> 
generated for DS1403 platform 
collect2 version 5.5.0
c:/program files/dspace rcphil 2021-a/compiler/linux440_550/target/arm-linux-gnueabihf/bin/../lib/gcc/arm-linux-gnueabihf/5.5.0/../../../../arm-linux-gnueabihf/bin/ld.exe -plugin c:/program files/dspace rcphil 2021-a/compiler/linux440_550/target/arm-linux-gnueabihf/bin/../libexec/gcc/arm-linux-gnueabihf/5.5.0/liblto_plugin-0.dll -plugin-opt=c:/program files/dspace rcphil 2021-a/compiler/linux440_550/target/arm-linux-gnueabihf/bin/../libexec/gcc/arm-linux-gnueabihf/5.5.0/lto-wrapper.exe -plugin-opt=-fresolution=C:\Users\ADMINI~1\AppData\Local\Temp\cc1APYfd.res -plugin-opt=-pass-through=-lgcc_s -plugin-opt=-pass-through=-lgcc -plugin-opt=-pass-through=-lc -plugin-opt=-pass-through=-lgcc_s -plugin-opt=-pass-through=-lgcc --sysroot=c:\program files\dspace rcphil 2021-a\compiler\linux440_550\target\arm-linux-gnueabihf\bin\../ --build-id --eh-frame-hdr -dynamic-linker /lib/ld-linux-armhf.so.3 -X -m armelf_linux_eabi c:/program files/dspace rcphil 2021-a/compiler/linux440_550/target/arm-linux-gnueabihf/bin/../lib/crt1.o c:/program files/dspace rcphil 2021-a/compiler/linux440_550/target/arm-linux-gnueabihf/bin/../lib/crti.o c:/program files/dspace rcphil 2021-a/compiler/linux440_550/target/arm-linux-gnueabihf/bin/../lib/gcc/arm-linux-gnueabihf/5.5.0/crtbegin.o -Lc:/program files/dspace rcphil 2021-a/compiler/linux440_550/target/arm-linux-gnueabihf/bin/../lib/gcc/arm-linux-gnueabihf/5.5.0 -Lc:/program files/dspace rcphil 2021-a/compiler/linux440_550/target/arm-linux-gnueabihf/bin/../lib/gcc -Lc:/program files/dspace rcphil 2021-a/compiler/linux440_550/target/arm-linux-gnueabihf/bin/../lib/gcc/arm-linux-gnueabihf/5.5.0/../../../../arm-linux-gnueabihf/lib -Lc:/program files/dspace rcphil 2021-a/compiler/linux440_550/target/arm-linux-gnueabihf/bin/../lib -v --unresolved-symbols=ignore-all -lstdc++ -lm -lgcc_s -lgcc -lc -lgcc_s -lgcc c:/program files/dspace rcphil 2021-a/compiler/linux440_550/target/arm-linux-gnueabihf/bin/../lib/gcc/arm-linux-gnueabihf/5.5.0/crtend.o c:/program files/dspace rcphil 2021-a/compiler/linux440_550/target/arm-linux-gnueabihf/bin/../lib/crtn.o
GNU ld (GNU Binutils) 2.26.20160125
Archive member included to satisfy reference by file (symbol)

C:\Users\Administrator\Furuta\Furuta\Furuta_Acados\Build\Furuta_Model\Compile\Furuta_Model\Furuta_Model.a(Furuta_Model_dsmpbap.oarm)
                              rtosal_task.oarm (dsmpb_event_task_Furuta_Model_TriggerEventPortSFcn_b_TID0_BT1)
C:\Users\Administrator\Furuta\Furuta\Furuta_Acados\Build\Furuta_Model\Compile\Furuta_Model\Furuta_Model.a(Furuta_Model_dsrtmdlfcn.oarm)
                              dssimengine_accesspoint.oarm (Furuta_Model_DSRTInitMdl)
C:\Users\Administrator\Furuta\Furuta\Furuta_Acados\Build\Furuta_Model\Compile\Furuta_Model\Furuta_Model.a(Furuta_Model_dsrttf.oarm)
                              rtosal_task.oarm (Furuta_Model_DSRTMdlOutputs0)
C:\Users\Administrator\Furuta\Furuta\Furuta_Acados\Build\Furuta_Model\Compile\Furuta_Model\Furuta_Model.a(Furuta_Model.oarm)
                              C:\Users\Administrator\Furuta\Furuta\Furuta_Acados\Build\Furuta_Model\Compile\Furuta_Model\Furuta_Model.a(Furuta_Model_dsmpbap.oarm) (Furuta_Model_Subsystem)
C:\Users\Administrator\Furuta\Furuta\Furuta_Acados\Build\Furuta_Model\Compile\Furuta_Model\Furuta_Model.a(Furuta_Model_data.oarm)
                              C:\Users\Administrator\Furuta\Furuta\Furuta_Acados\Build\Furuta_Model\Compile\Furuta_Model\Furuta_Model.a(Furuta_Model.oarm) (Furuta_Model_ConstP)
C:\Users\Administrator\Furuta\Furuta\Furuta_Acados\Build\Furuta_Model\Compile\Furuta_Model\Furuta_Model.a(Furuta_Model_dsrtvdf.oarm)
                              C:\Users\Administrator\Furuta\Furuta\Furuta_Acados\Build\Furuta_Model\Compile\Furuta_Model\Furuta_Model.a(Furuta_Model.oarm) (Furuta_Model_rti_init_trc_pointers)
C:\Users\Administrator\Furuta\Furuta\Furuta_Acados\Build\Furuta_Model\Compile\Furuta_Model\Furuta_Model.a(rt_nonfinite.oarm)
                              C:\Users\Administrator\Furuta\Furuta\Furuta_Acados\Build\Furuta_Model\Compile\Furuta_Model\Furuta_Model.a(Furuta_Model.oarm) (rt_InitInfAndNaN)
C:\Users\Administrator\Furuta\Furuta\Furuta_Acados\Build\Furuta_Model\Compile\Furuta_Model\Furuta_Model.a(rt_zcfcn.oarm)
                              C:\Users\Administrator\Furuta\Furuta\Furuta_Acados\Build\Furuta_Model\Compile\Furuta_Model\Furuta_Model.a(Furuta_Model.oarm) (rt_ZCFcn)
C:\Users\Administrator\Furuta\Furuta\Furuta_Acados\Build\Furuta_Model\Compile\Furuta_Model\Furuta_Model.a(acados_solver_sfunction_furuta.oarm)
                              C:\Users\Administrator\Furuta\Furuta\Furuta_Acados\Build\Furuta_Model\Compile\Furuta_Model\Furuta_Model.a(Furuta_Model.oarm) (acados_solver_sfunction_furuta)
C:\Users\Administrator\Furuta\Furuta\Furuta_Acados\Build\Furuta_Model\Compile\Furuta_Model\Furuta_Model.a(rtGetInf.oarm)
                              C:\Users\Administrator\Furuta\Furuta\Furuta_Acados\Build\Furuta_Model\Compile\Furuta_Model\Furuta_Model.a(rt_nonfinite.oarm) (rtGetInf)
C:\Users\Administrator\Furuta\Furuta\Furuta_Acados\Build\Furuta_Model\Compile\Furuta_Model\Furuta_Model.a(rtGetNaN.oarm)
                              C:\Users\Administrator\Furuta\Furuta\Furuta_Acados\Build\Furuta_Model\Compile\Furuta_Model\Furuta_Model.a(rt_nonfinite.oarm) (rtGetNaN)
C:\Users\Administrator\Furuta\Furuta\Furuta_Acados\Build\Furuta_Model\Compile\Furuta_Model\Furuta_Model.a(acados_solver_furuta.oarm)
                              C:\Users\Administrator\Furuta\Furuta\Furuta_Acados\Build\Furuta_Model\Compile\Furuta_Model\Furuta_Model.a(acados_solver_sfunction_furuta.oarm) (furuta_acados_create_capsule)
C:\Users\Administrator\Furuta\Furuta\Furuta_Acados\Build\Furuta_Model\Compile\Furuta_Model\Furuta_Model.a(furuta_expl_ode_fun.oarm)
                              C:\Users\Administrator\Furuta\Furuta\Furuta_Acados\Build\Furuta_Model\Compile\Furuta_Model\Furuta_Model.a(acados_solver_furuta.oarm) (furuta_expl_ode_fun)
C:\Users\Administrator\Furuta\Furuta\Furuta_Acados\Build\Furuta_Model\Compile\Furuta_Model\Furuta_Model.a(furuta_expl_vde_forw.oarm)
                              C:\Users\Administrator\Furuta\Furuta\Furuta_Acados\Build\Furuta_Model\Compile\Furuta_Model\Furuta_Model.a(acados_solver_furuta.oarm) (furuta_expl_vde_forw)
C:\Users\Administrator\acados_neu\buildDS1403\install\lib\libacados.a(ocp_nlp_common.c.obj)
                              C:\Users\Administrator\Furuta\Furuta\Furuta_Acados\Build\Furuta_Model\Compile\Furuta_Model\Furuta_Model.a(acados_solver_furuta.oarm) (ocp_nlp_dims_set_opt_vars)
C:\Users\Administrator\acados_neu\buildDS1403\install\lib\libacados.a(ocp_nlp_constraints_common.c.obj)
                              C:\Users\Administrator\acados_neu\buildDS1403\install\lib\libacados.a(ocp_nlp_common.c.obj) (ocp_nlp_constraints_config_calculate_size)
C:\Users\Administrator\acados_neu\buildDS1403\install\lib\libacados.a(ocp_nlp_cost_common.c.obj)
                              C:\Users\Administrator\acados_neu\buildDS1403\install\lib\libacados.a(ocp_nlp_common.c.obj) (ocp_nlp_cost_config_calculate_size)
C:\Users\Administrator\acados_neu\buildDS1403\install\lib\libacados.a(ocp_nlp_dynamics_common.c.obj)
                              C:\Users\Administrator\acados_neu\buildDS1403\install\lib\libacados.a(ocp_nlp_common.c.obj) (ocp_nlp_dynamics_config_calculate_size)
C:\Users\Administrator\acados_neu\buildDS1403\install\lib\libacados.a(ocp_nlp_reg_common.c.obj)
                              C:\Users\Administrator\acados_neu\buildDS1403\install\lib\libacados.a(ocp_nlp_common.c.obj) (ocp_nlp_reg_config_calculate_size)
C:\Users\Administrator\acados_neu\buildDS1403\install\lib\libacados.a(ocp_qp_common.c.obj)
                              C:\Users\Administrator\acados_neu\buildDS1403\install\lib\libacados.a(ocp_nlp_common.c.obj) (ocp_qp_in_calculate_size)
C:\Users\Administrator\acados_neu\buildDS1403\install\lib\libacados.a(ocp_qp_xcond_solver.c.obj)
                              C:\Users\Administrator\acados_neu\buildDS1403\install\lib\libacados.a(ocp_nlp_common.c.obj) (ocp_qp_xcond_solver_config_calculate_size)
C:\Users\Administrator\acados_neu\buildDS1403\install\lib\libacados.a(sim_common.c.obj)
                              C:\Users\Administrator\acados_neu\buildDS1403\install\lib\libacados.a(ocp_nlp_dynamics_common.c.obj) (sim_config_calculate_size)
C:\Users\Administrator\acados_neu\buildDS1403\install\lib\libacados.a(math.c.obj)
                              C:\Users\Administrator\acados_neu\buildDS1403\install\lib\libacados.a(ocp_nlp_reg_common.c.obj) (acados_eigen_decomposition)
C:\Users\Administrator\acados_neu\buildDS1403\install\lib\libacados.a(mem.c.obj)
                              C:\Users\Administrator\acados_neu\buildDS1403\install\lib\libacados.a(ocp_nlp_common.c.obj) (make_int_multiple_of)
C:\Users\Administrator\acados_neu\buildDS1403\install\lib\libacados.a(timing.c.obj)
                              C:\Users\Administrator\acados_neu\buildDS1403\install\lib\libacados.a(ocp_qp_xcond_solver.c.obj) (acados_tic)
C:\Users\Administrator\acados_neu\buildDS1403\install\lib\libacados.a(external_function_interface.c.obj)
                              C:\Users\Administrator\Furuta\Furuta\Furuta_Acados\Build\Furuta_Model\Compile\Furuta_Model\Furuta_Model.a(acados_solver_furuta.oarm) (external_function_param_casadi_create)
C:\Users\Administrator\acados_neu\buildDS1403\install\lib\libacados.a(ocp_nlp_interface.c.obj)
                              C:\Users\Administrator\Furuta\Furuta\Furuta_Acados\Build\Furuta_Model\Compile\Furuta_Model\Furuta_Model.a(acados_solver_furuta.oarm) (ocp_nlp_plan_create)
C:\Users\Administrator\acados_neu\buildDS1403\install\lib\libacados.a(ocp_qp_interface.c.obj)
                              C:\Users\Administrator\acados_neu\buildDS1403\install\lib\libacados.a(ocp_nlp_interface.c.obj) (ocp_qp_xcond_solver_config_initialize_from_plan)
C:\Users\Administrator\acados_neu\buildDS1403\install\lib\libacados.a(dense_qp_hpipm.c.obj)
                              C:\Users\Administrator\acados_neu\buildDS1403\install\lib\libacados.a(ocp_qp_interface.c.obj) (dense_qp_hpipm_config_initialize_default)
C:\Users\Administrator\acados_neu\buildDS1403\install\lib\libacados.a(ocp_nlp_constraints_bgh.c.obj)
                              C:\Users\Administrator\acados_neu\buildDS1403\install\lib\libacados.a(ocp_nlp_interface.c.obj) (ocp_nlp_constraints_bgh_config_initialize_default)
C:\Users\Administrator\acados_neu\buildDS1403\install\lib\libacados.a(ocp_nlp_constraints_bgp.c.obj)
                              C:\Users\Administrator\acados_neu\buildDS1403\install\lib\libacados.a(ocp_nlp_interface.c.obj) (ocp_nlp_constraints_bgp_config_initialize_default)
C:\Users\Administrator\acados_neu\buildDS1403\install\lib\libacados.a(ocp_nlp_cost_conl.c.obj)
                              C:\Users\Administrator\acados_neu\buildDS1403\install\lib\libacados.a(ocp_nlp_interface.c.obj) (ocp_nlp_cost_conl_config_initialize_default)
C:\Users\Administrator\acados_neu\buildDS1403\install\lib\libacados.a(ocp_nlp_cost_external.c.obj)
                              C:\Users\Administrator\acados_neu\buildDS1403\install\lib\libacados.a(ocp_nlp_interface.c.obj) (ocp_nlp_cost_external_config_initialize_default)
C:\Users\Administrator\acados_neu\buildDS1403\install\lib\libacados.a(ocp_nlp_cost_ls.c.obj)
                              C:\Users\Administrator\acados_neu\buildDS1403\install\lib\libacados.a(ocp_nlp_interface.c.obj) (ocp_nlp_cost_ls_config_initialize_default)
C:\Users\Administrator\acados_neu\buildDS1403\install\lib\libacados.a(ocp_nlp_cost_nls.c.obj)
                              C:\Users\Administrator\acados_neu\buildDS1403\install\lib\libacados.a(ocp_nlp_interface.c.obj) (ocp_nlp_cost_nls_config_initialize_default)
C:\Users\Administrator\acados_neu\buildDS1403\install\lib\libacados.a(ocp_nlp_dynamics_cont.c.obj)
                              C:\Users\Administrator\acados_neu\buildDS1403\install\lib\libacados.a(ocp_nlp_interface.c.obj) (ocp_nlp_dynamics_cont_config_initialize_default)
C:\Users\Administrator\acados_neu\buildDS1403\install\lib\libacados.a(ocp_nlp_dynamics_disc.c.obj)
                              C:\Users\Administrator\acados_neu\buildDS1403\install\lib\libacados.a(ocp_nlp_interface.c.obj) (ocp_nlp_dynamics_disc_config_initialize_default)
C:\Users\Administrator\acados_neu\buildDS1403\install\lib\libacados.a(ocp_nlp_reg_convexify.c.obj)
                              C:\Users\Administrator\acados_neu\buildDS1403\install\lib\libacados.a(ocp_nlp_interface.c.obj) (ocp_nlp_reg_convexify_config_initialize_default)
C:\Users\Administrator\acados_neu\buildDS1403\install\lib\libacados.a(ocp_nlp_reg_mirror.c.obj)
                              C:\Users\Administrator\acados_neu\buildDS1403\install\lib\libacados.a(ocp_nlp_interface.c.obj) (ocp_nlp_reg_mirror_config_initialize_default)
C:\Users\Administrator\acados_neu\buildDS1403\install\lib\libacados.a(ocp_nlp_reg_noreg.c.obj)
                              C:\Users\Administrator\acados_neu\buildDS1403\install\lib\libacados.a(ocp_nlp_interface.c.obj) (ocp_nlp_reg_noreg_config_initialize_default)
C:\Users\Administrator\acados_neu\buildDS1403\install\lib\libacados.a(ocp_nlp_reg_project.c.obj)
                              C:\Users\Administrator\acados_neu\buildDS1403\install\lib\libacados.a(ocp_nlp_interface.c.obj) (ocp_nlp_reg_project_config_initialize_default)
C:\Users\Administrator\acados_neu\buildDS1403\install\lib\libacados.a(ocp_nlp_reg_project_reduc_hess.c.obj)
                              C:\Users\Administrator\acados_neu\buildDS1403\install\lib\libacados.a(ocp_nlp_interface.c.obj) (ocp_nlp_reg_project_reduc_hess_config_initialize_default)
C:\Users\Administrator\acados_neu\buildDS1403\install\lib\libacados.a(ocp_nlp_sqp.c.obj)
                              C:\Users\Administrator\acados_neu\buildDS1403\install\lib\libacados.a(ocp_nlp_interface.c.obj) (ocp_nlp_sqp_config_initialize_default)
C:\Users\Administrator\acados_neu\buildDS1403\install\lib\libacados.a(ocp_nlp_sqp_rti.c.obj)
                              C:\Users\Administrator\acados_neu\buildDS1403\install\lib\libacados.a(ocp_nlp_interface.c.obj) (ocp_nlp_sqp_rti_config_initialize_default)
C:\Users\Administrator\acados_neu\buildDS1403\install\lib\libacados.a(ocp_qp_full_condensing.c.obj)
                              C:\Users\Administrator\acados_neu\buildDS1403\install\lib\libacados.a(ocp_qp_interface.c.obj) (ocp_qp_full_condensing_config_initialize_default)
C:\Users\Administrator\acados_neu\buildDS1403\install\lib\libacados.a(ocp_qp_hpipm.c.obj)
                              C:\Users\Administrator\acados_neu\buildDS1403\install\lib\libacados.a(ocp_qp_interface.c.obj) (ocp_qp_hpipm_config_initialize_default)
C:\Users\Administrator\acados_neu\buildDS1403\install\lib\libacados.a(ocp_qp_partial_condensing.c.obj)
                              C:\Users\Administrator\acados_neu\buildDS1403\install\lib\libacados.a(ocp_qp_interface.c.obj) (ocp_qp_partial_condensing_config_initialize_default)
C:\Users\Administrator\acados_neu\buildDS1403\install\lib\libacados.a(sim_erk_integrator.c.obj)
                              C:\Users\Administrator\acados_neu\buildDS1403\install\lib\libacados.a(ocp_nlp_interface.c.obj) (sim_erk_config_initialize_default)
C:\Users\Administrator\acados_neu\buildDS1403\install\lib\libacados.a(sim_gnsf.c.obj)
                              C:\Users\Administrator\acados_neu\buildDS1403\install\lib\libacados.a(ocp_nlp_interface.c.obj) (sim_gnsf_config_initialize_default)
C:\Users\Administrator\acados_neu\buildDS1403\install\lib\libacados.a(sim_irk_integrator.c.obj)
                              C:\Users\Administrator\acados_neu\buildDS1403\install\lib\libacados.a(ocp_nlp_interface.c.obj) (sim_irk_config_initialize_default)
C:\Users\Administrator\acados_neu\buildDS1403\install\lib\libacados.a(sim_lifted_irk_integrator.c.obj)
                              C:\Users\Administrator\acados_neu\buildDS1403\install\lib\libacados.a(ocp_nlp_interface.c.obj) (sim_lifted_irk_config_initialize_default)
C:\Users\Administrator\acados_neu\buildDS1403\install\lib\libacados.a(external_function_generic.c.obj)
                              C:\Users\Administrator\acados_neu\buildDS1403\install\lib\libacados.a(external_function_interface.c.obj) (external_function_param_generic_calculate_size)
C:\Users\Administrator\acados_neu\buildDS1403\install\lib\libacados.a(print.c.obj)
                              C:\Users\Administrator\acados_neu\buildDS1403\install\lib\libacados.a(ocp_nlp_sqp.c.obj) (print_ocp_qp_in)
C:\Users\Administrator\acados_neu\buildDS1403\install\lib\libacados.a(sim_interface.c.obj)
                              C:\Users\Administrator\acados_neu\buildDS1403\install\lib\libacados.a(ocp_nlp_dynamics_cont.c.obj) (sim_opts_get)
C:\Users\Administrator\acados_neu\buildDS1403\install\lib\libacados.a(dense_qp_common.c.obj)
                              C:\Users\Administrator\acados_neu\buildDS1403\install\lib\libacados.a(dense_qp_hpipm.c.obj) (dense_qp_dims_set)
C:\Users\Administrator\acados_neu\buildDS1403\install\lib\libacados.a(sim_collocation_utils.c.obj)
                              C:\Users\Administrator\acados_neu\buildDS1403\install\lib\libacados.a(sim_gnsf.c.obj) (butcher_tableau_work_calculate_size)
C:\Users\Administrator\acados_neu\buildDS1403\install\lib\libblasfeo.a(d_aux_lib4.c.obj)
                              C:\Users\Administrator\acados_neu\buildDS1403\install\lib\libacados.a(ocp_nlp_common.c.obj) (blasfeo_memsize_dmat)
C:\Users\Administrator\acados_neu\buildDS1403\install\lib\libblasfeo.a(d_blas1_lib4.c.obj)
                              C:\Users\Administrator\acados_neu\buildDS1403\install\lib\libacados.a(ocp_nlp_common.c.obj) (blasfeo_daxpy)
C:\Users\Administrator\acados_neu\buildDS1403\install\lib\libblasfeo.a(d_blas2_lib4.c.obj)
                              C:\Users\Administrator\acados_neu\buildDS1403\install\lib\libacados.a(ocp_nlp_common.c.obj) (blasfeo_dgemv_n)
C:\Users\Administrator\acados_neu\buildDS1403\install\lib\libblasfeo.a(d_blas3_diag_lib4.c.obj)
                              C:\Users\Administrator\acados_neu\buildDS1403\install\lib\libacados.a(ocp_nlp_cost_conl.c.obj) (blasfeo_dgemm_nd)
C:\Users\Administrator\acados_neu\buildDS1403\install\lib\libblasfeo.a(d_blas3_lib4.c.obj)
                              C:\Users\Administrator\acados_neu\buildDS1403\install\lib\libacados.a(ocp_nlp_constraints_bgh.c.obj) (blasfeo_dgemm_nn)
C:\Users\Administrator\acados_neu\buildDS1403\install\lib\libblasfeo.a(d_lapack_lib4.c.obj)
                              C:\Users\Administrator\acados_neu\buildDS1403\install\lib\libacados.a(ocp_nlp_cost_conl.c.obj) (blasfeo_dpotrf_l)
C:\Users\Administrator\acados_neu\buildDS1403\install\lib\libblasfeo.a(d_aux_ref.c.obj)
                              C:\Users\Administrator\acados_neu\buildDS1403\install\lib\libblasfeo.a(d_aux_lib4.c.obj) (blasfeo_ref_pack_l_dmat)
C:\Users\Administrator\acados_neu\buildDS1403\install\lib\libblasfeo.a(d_blas2_ref.c.obj)
                              C:\Users\Administrator\acados_neu\buildDS1403\install\lib\libblasfeo.a(d_blas2_lib4.c.obj) (blasfeo_ref_dgemv_nt)
C:\Users\Administrator\acados_neu\buildDS1403\install\lib\libblasfeo.a(d_blas3_diag_ref.c.obj)
                              C:\Users\Administrator\acados_neu\buildDS1403\install\lib\libblasfeo.a(d_blas3_diag_lib4.c.obj) (blasfeo_ref_dgemm_dn)
C:\Users\Administrator\acados_neu\buildDS1403\install\lib\libblasfeo.a(d_blas3_ref.c.obj)
                              C:\Users\Administrator\acados_neu\buildDS1403\install\lib\libblasfeo.a(d_blas3_lib4.c.obj) (blasfeo_ref_dtrsm_llnn)
C:\Users\Administrator\acados_neu\buildDS1403\install\lib\libblasfeo.a(d_lapack_ref.c.obj)
                              C:\Users\Administrator\acados_neu\buildDS1403\install\lib\libblasfeo.a(d_lapack_lib4.c.obj) (blasfeo_ref_dpotrf_l)
C:\Users\Administrator\acados_neu\buildDS1403\install\lib\libblasfeo.a(kernel_align_generic.c.obj)
                              C:\Users\Administrator\acados_neu\buildDS1403\install\lib\libblasfeo.a(d_blas3_lib4.c.obj) (blasfeo_align_64_byte)
C:\Users\Administrator\acados_neu\buildDS1403\install\lib\libblasfeo.a(kernel_d_aux_lib.c.obj)
                              C:\Users\Administrator\acados_neu\buildDS1403\install\lib\libblasfeo.a(d_aux_lib4.c.obj) (kernel_dveccp_inc1)
C:\Users\Administrator\acados_neu\buildDS1403\install\lib\libblasfeo.a(kernel_dgecp_lib4.c.obj)
                              C:\Users\Administrator\acados_neu\buildDS1403\install\lib\libblasfeo.a(d_aux_lib4.c.obj) (kernel_dgecp_4_0_lib4)
C:\Users\Administrator\acados_neu\buildDS1403\install\lib\libblasfeo.a(kernel_dgemm_4x4_lib4.c.obj)
                              C:\Users\Administrator\acados_neu\buildDS1403\install\lib\libblasfeo.a(d_blas3_lib4.c.obj) (kernel_dgemm_nt_4x4_lib4)
C:\Users\Administrator\acados_neu\buildDS1403\install\lib\libblasfeo.a(kernel_dgemm_diag_lib4.c.obj)
                              C:\Users\Administrator\acados_neu\buildDS1403\install\lib\libblasfeo.a(d_blas3_diag_lib4.c.obj) (kernel_dgemm_diag_right_4_a0_lib4)
C:\Users\Administrator\acados_neu\buildDS1403\install\lib\libblasfeo.a(kernel_dgemv_4_lib4.c.obj)
                              C:\Users\Administrator\acados_neu\buildDS1403\install\lib\libblasfeo.a(d_blas2_lib4.c.obj) (kernel_dgemv_n_4_lib4)
C:\Users\Administrator\acados_neu\buildDS1403\install\lib\libblasfeo.a(kernel_dgeqrf_4_lib4.c.obj)
                              C:\Users\Administrator\acados_neu\buildDS1403\install\lib\libblasfeo.a(d_lapack_lib4.c.obj) (kernel_dgeqrf_4_lib4)
C:\Users\Administrator\acados_neu\buildDS1403\install\lib\libblasfeo.a(kernel_dgetr_lib4.c.obj)
                              C:\Users\Administrator\acados_neu\buildDS1403\install\lib\libblasfeo.a(d_aux_lib4.c.obj) (kernel_dgetr_4_lib4)
C:\Users\Administrator\acados_neu\buildDS1403\install\lib\libblasfeo.a(kernel_dgetrf_pivot_lib4.c.obj)
                              C:\Users\Administrator\acados_neu\buildDS1403\install\lib\libblasfeo.a(d_aux_lib4.c.obj) (kernel_drowsw_lib4)
C:\Users\Administrator\acados_neu\buildDS1403\install\lib\libblasfeo.a(kernel_dpack_lib4.c.obj)
                              C:\Users\Administrator\acados_neu\buildDS1403\install\lib\libblasfeo.a(d_blas3_lib4.c.obj) (kernel_dpacp_tn_4_lib4)
C:\Users\Administrator\acados_neu\buildDS1403\install\lib\libblasfeo.a(kernel_dsymv_4_lib4.c.obj)
                              C:\Users\Administrator\acados_neu\buildDS1403\install\lib\libblasfeo.a(d_blas2_lib4.c.obj) (kernel_dgemv_nt_4_vs_lib4)
C:\Users\Administrator\acados_neu\buildDS1403\install\lib\libhpipm.a(d_cond.c.obj)
                              C:\Users\Administrator\acados_neu\buildDS1403\install\lib\libacados.a(ocp_qp_full_condensing.c.obj) (d_cond_qp_compute_dim)
C:\Users\Administrator\acados_neu\buildDS1403\install\lib\libhpipm.a(d_cond_aux.c.obj)
                              C:\Users\Administrator\acados_neu\buildDS1403\install\lib\libhpipm.a(d_cond.c.obj) (d_cond_BAbt)
C:\Users\Administrator\acados_neu\buildDS1403\install\lib\libhpipm.a(d_part_cond.c.obj)
                              C:\Users\Administrator\acados_neu\buildDS1403\install\lib\libacados.a(ocp_qp_partial_condensing.c.obj) (d_part_cond_qp_compute_block_size)
C:\Users\Administrator\acados_neu\buildDS1403\install\lib\libhpipm.a(d_dense_qp.c.obj)
                              C:\Users\Administrator\acados_neu\buildDS1403\install\lib\libacados.a(dense_qp_common.c.obj) (d_dense_qp_memsize)
C:\Users\Administrator\acados_neu\buildDS1403\install\lib\libhpipm.a(d_dense_qp_dim.c.obj)
                              C:\Users\Administrator\acados_neu\buildDS1403\install\lib\libacados.a(dense_qp_common.c.obj) (d_dense_qp_dim_memsize)
C:\Users\Administrator\acados_neu\buildDS1403\install\lib\libhpipm.a(d_dense_qp_ipm.c.obj)
                              C:\Users\Administrator\acados_neu\buildDS1403\install\lib\libacados.a(dense_qp_hpipm.c.obj) (d_dense_qp_ipm_arg_memsize)
C:\Users\Administrator\acados_neu\buildDS1403\install\lib\libhpipm.a(d_dense_qp_kkt.c.obj)
                              C:\Users\Administrator\acados_neu\buildDS1403\install\lib\libhpipm.a(d_dense_qp_ipm.c.obj) (d_fact_solve_kkt_unconstr_dense_qp)
C:\Users\Administrator\acados_neu\buildDS1403\install\lib\libhpipm.a(d_dense_qp_res.c.obj)
                              C:\Users\Administrator\acados_neu\buildDS1403\install\lib\libacados.a(dense_qp_common.c.obj) (d_dense_qp_res_memsize)
C:\Users\Administrator\acados_neu\buildDS1403\install\lib\libhpipm.a(d_dense_qp_sol.c.obj)
                              C:\Users\Administrator\acados_neu\buildDS1403\install\lib\libacados.a(dense_qp_common.c.obj) (d_dense_qp_sol_memsize)
C:\Users\Administrator\acados_neu\buildDS1403\install\lib\libhpipm.a(d_core_qp_ipm.c.obj)
                              C:\Users\Administrator\acados_neu\buildDS1403\install\lib\libhpipm.a(d_dense_qp_ipm.c.obj) (d_memsize_core_qp_ipm)
C:\Users\Administrator\acados_neu\buildDS1403\install\lib\libhpipm.a(d_core_qp_ipm_aux.c.obj)
                              C:\Users\Administrator\acados_neu\buildDS1403\install\lib\libhpipm.a(d_dense_qp_kkt.c.obj) (d_compute_Gamma_gamma_qp)
C:\Users\Administrator\acados_neu\buildDS1403\install\lib\libhpipm.a(d_ocp_qp.c.obj)
                              C:\Users\Administrator\acados_neu\buildDS1403\install\lib\libacados.a(ocp_qp_common.c.obj) (d_ocp_qp_memsize)
C:\Users\Administrator\acados_neu\buildDS1403\install\lib\libhpipm.a(d_ocp_qp_dim.c.obj)
                              C:\Users\Administrator\acados_neu\buildDS1403\install\lib\libacados.a(ocp_qp_common.c.obj) (d_ocp_qp_dim_memsize)
C:\Users\Administrator\acados_neu\buildDS1403\install\lib\libhpipm.a(d_ocp_qp_ipm.c.obj)
                              C:\Users\Administrator\acados_neu\buildDS1403\install\lib\libacados.a(ocp_qp_hpipm.c.obj) (d_ocp_qp_ipm_arg_memsize)
C:\Users\Administrator\acados_neu\buildDS1403\install\lib\libhpipm.a(d_ocp_qp_kkt.c.obj)
                              C:\Users\Administrator\acados_neu\buildDS1403\install\lib\libhpipm.a(d_ocp_qp_ipm.c.obj) (d_ocp_qp_fact_solve_kkt_unconstr)
C:\Users\Administrator\acados_neu\buildDS1403\install\lib\libhpipm.a(d_ocp_qp_red.c.obj)
                              C:\Users\Administrator\acados_neu\buildDS1403\install\lib\libacados.a(ocp_qp_full_condensing.c.obj) (d_ocp_qp_dim_reduce_eq_dof)
C:\Users\Administrator\acados_neu\buildDS1403\install\lib\libhpipm.a(d_ocp_qp_res.c.obj)
                              C:\Users\Administrator\acados_neu\buildDS1403\install\lib\libacados.a(ocp_qp_common.c.obj) (d_ocp_qp_res_memsize)
C:\Users\Administrator\acados_neu\buildDS1403\install\lib\libhpipm.a(d_ocp_qp_sol.c.obj)
                              C:\Users\Administrator\acados_neu\buildDS1403\install\lib\libacados.a(ocp_qp_common.c.obj) (d_ocp_qp_sol_memsize)
C:\Users\Administrator\acados_neu\buildDS1403\install\lib\libhpipm.a(aux_mem.c.obj)
                              C:\Users\Administrator\acados_neu\buildDS1403\install\lib\libhpipm.a(d_cond.c.obj) (hpipm_zero_memset)
C:\Users\Administrator\acados_neu\buildDS1403\install\lib\libhpipm.a(aux_string.c.obj)
                              C:\Users\Administrator\acados_neu\buildDS1403\install\lib\libhpipm.a(d_dense_qp.c.obj) (hpipm_strcmp)
C:\Users\Administrator\acados_neu\buildDS1403\install\lib\libblasfeo.a(d_blas2_diag_lib.c.obj)
                              C:\Users\Administrator\acados_neu\buildDS1403\install\lib\libhpipm.a(d_cond_aux.c.obj) (blasfeo_dgemv_d)
c:/program files/dspace rcphil 2021-a/compiler/linux440_550/target/arm-linux-gnueabihf/bin/../lib\libc_nonshared.a(elf-init.oS)
                              c:/program files/dspace rcphil 2021-a/compiler/linux440_550/target/arm-linux-gnueabihf/bin/../lib/crt1.o (__libc_csu_init)

As-needed library included to satisfy reference by file (symbol)

libDsRealTimeTestingRP.so.1   rtosal_task.oarm (dsrtt_script_service_post_computation)

Discarded input sections

 .note.GNU-stack
                0x0000000000000000        0x0 c:/program files/dspace rcphil 2021-a/compiler/linux440_550/target/arm-linux-gnueabihf/bin/../lib/crt1.o
 .note.GNU-stack
                0x0000000000000000        0x0 c:/program files/dspace rcphil 2021-a/compiler/linux440_550/target/arm-linux-gnueabihf/bin/../lib/crti.o
 .note.GNU-stack
                0x0000000000000000        0x0 c:/program files/dspace rcphil 2021-a/compiler/linux440_550/target/arm-linux-gnueabihf/bin/../lib/gcc/arm-linux-gnueabihf/5.5.0/crtbegin.o
 .note.GNU-stack
                0x0000000000000000        0x0 mdladapter_mdlfunctions.oarm
 .note.GNU-stack
                0x0000000000000000        0x0 mdlCode_ap.oarm
 .note.GNU-stack
                0x0000000000000000        0x0 data_in_ap.oarm
 .note.GNU-stack
                0x0000000000000000        0x0 data_out_ap.oarm
 .note.GNU-stack
                0x0000000000000000        0x0 fm_entry_ap.oarm
 .note.GNU-stack
                0x0000000000000000        0x0 fm_exit_ap.oarm
 .note.GNU-stack
                0x0000000000000000        0x0 dssimengine_accesspoint.oarm
 .note.GNU-stack
                0x0000000000000000        0x0 dssimengine_api.oarm
 .note.GNU-stack
                0x0000000000000000        0x0 dssimengine_main.oarm
 .note.GNU-stack
                0x0000000000000000        0x0 rtosal_task.oarm
 .note.GNU-stack
                0x0000000000000000        0x0 rtosal_taskap.oarm
 .note.GNU-stack
                0x0000000000000000        0x0 rtosal_simengineap.oarm
 .note.GNU-stack
                0x0000000000000000        0x0 IOCode_Data.oarm
 .note.GNU-stack
                0x0000000000000000        0x0 dssimengine_accesspoint_Digital_Incremental_Encoder_In.oarm
 .note.GNU-stack
                0x0000000000000000        0x0 dssimengine_accesspoint_Voltage_In.oarm
 .note.GNU-stack
                0x0000000000000000        0x0 dssimengine_accesspoint_Voltage_Out.oarm
 .note.GNU-stack
                0x0000000000000000        0x0 C:\Users\Administrator\Furuta\Furuta\Furuta_Acados\Build\Furuta_Model\Compile\Furuta_Model\Furuta_Model.a(Furuta_Model_dsmpbap.oarm)
 .note.GNU-stack
                0x0000000000000000        0x0 C:\Users\Administrator\Furuta\Furuta\Furuta_Acados\Build\Furuta_Model\Compile\Furuta_Model\Furuta_Model.a(Furuta_Model_dsrtmdlfcn.oarm)
 .note.GNU-stack
                0x0000000000000000        0x0 C:\Users\Administrator\Furuta\Furuta\Furuta_Acados\Build\Furuta_Model\Compile\Furuta_Model\Furuta_Model.a(Furuta_Model_dsrttf.oarm)
 .note.GNU-stack
                0x0000000000000000        0x0 C:\Users\Administrator\Furuta\Furuta\Furuta_Acados\Build\Furuta_Model\Compile\Furuta_Model\Furuta_Model.a(Furuta_Model.oarm)
 .note.GNU-stack
                0x0000000000000000        0x0 C:\Users\Administrator\Furuta\Furuta\Furuta_Acados\Build\Furuta_Model\Compile\Furuta_Model\Furuta_Model.a(Furuta_Model_data.oarm)
 .note.GNU-stack
                0x0000000000000000        0x0 C:\Users\Administrator\Furuta\Furuta\Furuta_Acados\Build\Furuta_Model\Compile\Furuta_Model\Furuta_Model.a(Furuta_Model_dsrtvdf.oarm)
 .note.GNU-stack
                0x0000000000000000        0x0 C:\Users\Administrator\Furuta\Furuta\Furuta_Acados\Build\Furuta_Model\Compile\Furuta_Model\Furuta_Model.a(rt_nonfinite.oarm)
 .note.GNU-stack
                0x0000000000000000        0x0 C:\Users\Administrator\Furuta\Furuta\Furuta_Acados\Build\Furuta_Model\Compile\Furuta_Model\Furuta_Model.a(rt_zcfcn.oarm)
 .note.GNU-stack
                0x0000000000000000        0x0 C:\Users\Administrator\Furuta\Furuta\Furuta_Acados\Build\Furuta_Model\Compile\Furuta_Model\Furuta_Model.a(acados_solver_sfunction_furuta.oarm)
 .note.GNU-stack
                0x0000000000000000        0x0 C:\Users\Administrator\Furuta\Furuta\Furuta_Acados\Build\Furuta_Model\Compile\Furuta_Model\Furuta_Model.a(rtGetInf.oarm)
 .note.GNU-stack
                0x0000000000000000        0x0 C:\Users\Administrator\Furuta\Furuta\Furuta_Acados\Build\Furuta_Model\Compile\Furuta_Model\Furuta_Model.a(rtGetNaN.oarm)
 .note.GNU-stack
                0x0000000000000000        0x0 C:\Users\Administrator\Furuta\Furuta\Furuta_Acados\Build\Furuta_Model\Compile\Furuta_Model\Furuta_Model.a(acados_solver_furuta.oarm)
 .note.GNU-stack
                0x0000000000000000        0x0 C:\Users\Administrator\Furuta\Furuta\Furuta_Acados\Build\Furuta_Model\Compile\Furuta_Model\Furuta_Model.a(furuta_expl_ode_fun.oarm)
 .note.GNU-stack
                0x0000000000000000        0x0 C:\Users\Administrator\Furuta\Furuta\Furuta_Acados\Build\Furuta_Model\Compile\Furuta_Model\Furuta_Model.a(furuta_expl_vde_forw.oarm)
 .note.GNU-stack
                0x0000000000000000        0x0 C:\Users\Administrator\acados_neu\buildDS1403\install\lib\libacados.a(ocp_nlp_common.c.obj)
 .note.GNU-stack
                0x0000000000000000        0x0 C:\Users\Administrator\acados_neu\buildDS1403\install\lib\libacados.a(ocp_nlp_constraints_common.c.obj)
 .note.GNU-stack
                0x0000000000000000        0x0 C:\Users\Administrator\acados_neu\buildDS1403\install\lib\libacados.a(ocp_nlp_cost_common.c.obj)
 .note.GNU-stack
                0x0000000000000000        0x0 C:\Users\Administrator\acados_neu\buildDS1403\install\lib\libacados.a(ocp_nlp_dynamics_common.c.obj)
 .note.GNU-stack
                0x0000000000000000        0x0 C:\Users\Administrator\acados_neu\buildDS1403\install\lib\libacados.a(ocp_nlp_reg_common.c.obj)
 .note.GNU-stack
                0x0000000000000000        0x0 C:\Users\Administrator\acados_neu\buildDS1403\install\lib\libacados.a(ocp_qp_common.c.obj)
 .note.GNU-stack
                0x0000000000000000        0x0 C:\Users\Administrator\acados_neu\buildDS1403\install\lib\libacados.a(ocp_qp_xcond_solver.c.obj)
 .note.GNU-stack
                0x0000000000000000        0x0 C:\Users\Administrator\acados_neu\buildDS1403\install\lib\libacados.a(sim_common.c.obj)
 .note.GNU-stack
                0x0000000000000000        0x0 C:\Users\Administrator\acados_neu\buildDS1403\install\lib\libacados.a(math.c.obj)
 .note.GNU-stack
                0x0000000000000000        0x0 C:\Users\Administrator\acados_neu\buildDS1403\install\lib\libacados.a(mem.c.obj)
 .note.GNU-stack
                0x0000000000000000        0x0 C:\Users\Administrator\acados_neu\buildDS1403\install\lib\libacados.a(timing.c.obj)
 .note.GNU-stack
                0x0000000000000000        0x0 C:\Users\Administrator\acados_neu\buildDS1403\install\lib\libacados.a(external_function_interface.c.obj)
 .note.GNU-stack
                0x0000000000000000        0x0 C:\Users\Administrator\acados_neu\buildDS1403\install\lib\libacados.a(ocp_nlp_interface.c.obj)
 .note.GNU-stack
                0x0000000000000000        0x0 C:\Users\Administrator\acados_neu\buildDS1403\install\lib\libacados.a(ocp_qp_interface.c.obj)
 .note.GNU-stack
                0x0000000000000000        0x0 C:\Users\Administrator\acados_neu\buildDS1403\install\lib\libacados.a(dense_qp_hpipm.c.obj)
 .note.GNU-stack
                0x0000000000000000        0x0 C:\Users\Administrator\acados_neu\buildDS1403\install\lib\libacados.a(ocp_nlp_constraints_bgh.c.obj)
 .note.GNU-stack
                0x0000000000000000        0x0 C:\Users\Administrator\acados_neu\buildDS1403\install\lib\libacados.a(ocp_nlp_constraints_bgp.c.obj)
 .note.GNU-stack
                0x0000000000000000        0x0 C:\Users\Administrator\acados_neu\buildDS1403\install\lib\libacados.a(ocp_nlp_cost_conl.c.obj)
 .note.GNU-stack
                0x0000000000000000        0x0 C:\Users\Administrator\acados_neu\buildDS1403\install\lib\libacados.a(ocp_nlp_cost_external.c.obj)
 .note.GNU-stack
                0x0000000000000000        0x0 C:\Users\Administrator\acados_neu\buildDS1403\install\lib\libacados.a(ocp_nlp_cost_ls.c.obj)
 .note.GNU-stack
                0x0000000000000000        0x0 C:\Users\Administrator\acados_neu\buildDS1403\install\lib\libacados.a(ocp_nlp_cost_nls.c.obj)
 .note.GNU-stack
                0x0000000000000000        0x0 C:\Users\Administrator\acados_neu\buildDS1403\install\lib\libacados.a(ocp_nlp_dynamics_cont.c.obj)
 .note.GNU-stack
                0x0000000000000000        0x0 C:\Users\Administrator\acados_neu\buildDS1403\install\lib\libacados.a(ocp_nlp_dynamics_disc.c.obj)
 .note.GNU-stack
                0x0000000000000000        0x0 C:\Users\Administrator\acados_neu\buildDS1403\install\lib\libacados.a(ocp_nlp_reg_convexify.c.obj)
 .note.GNU-stack
                0x0000000000000000        0x0 C:\Users\Administrator\acados_neu\buildDS1403\install\lib\libacados.a(ocp_nlp_reg_mirror.c.obj)
 .note.GNU-stack
                0x0000000000000000        0x0 C:\Users\Administrator\acados_neu\buildDS1403\install\lib\libacados.a(ocp_nlp_reg_noreg.c.obj)
 .note.GNU-stack
                0x0000000000000000        0x0 C:\Users\Administrator\acados_neu\buildDS1403\install\lib\libacados.a(ocp_nlp_reg_project.c.obj)
 .note.GNU-stack
                0x0000000000000000        0x0 C:\Users\Administrator\acados_neu\buildDS1403\install\lib\libacados.a(ocp_nlp_reg_project_reduc_hess.c.obj)
 .note.GNU-stack
                0x0000000000000000        0x0 C:\Users\Administrator\acados_neu\buildDS1403\install\lib\libacados.a(ocp_nlp_sqp.c.obj)
 .note.GNU-stack
                0x0000000000000000        0x0 C:\Users\Administrator\acados_neu\buildDS1403\install\lib\libacados.a(ocp_nlp_sqp_rti.c.obj)
 .note.GNU-stack
                0x0000000000000000        0x0 C:\Users\Administrator\acados_neu\buildDS1403\install\lib\libacados.a(ocp_qp_full_condensing.c.obj)
 .note.GNU-stack
                0x0000000000000000        0x0 C:\Users\Administrator\acados_neu\buildDS1403\install\lib\libacados.a(ocp_qp_hpipm.c.obj)
 .note.GNU-stack
                0x0000000000000000        0x0 C:\Users\Administrator\acados_neu\buildDS1403\install\lib\libacados.a(ocp_qp_partial_condensing.c.obj)
 .note.GNU-stack
                0x0000000000000000        0x0 C:\Users\Administrator\acados_neu\buildDS1403\install\lib\libacados.a(sim_erk_integrator.c.obj)
 .note.GNU-stack
                0x0000000000000000        0x0 C:\Users\Administrator\acados_neu\buildDS1403\install\lib\libacados.a(sim_gnsf.c.obj)
 .note.GNU-stack
                0x0000000000000000        0x0 C:\Users\Administrator\acados_neu\buildDS1403\install\lib\libacados.a(sim_irk_integrator.c.obj)
 .note.GNU-stack
                0x0000000000000000        0x0 C:\Users\Administrator\acados_neu\buildDS1403\install\lib\libacados.a(sim_lifted_irk_integrator.c.obj)
 .note.GNU-stack
                0x0000000000000000        0x0 C:\Users\Administrator\acados_neu\buildDS1403\install\lib\libacados.a(external_function_generic.c.obj)
 .note.GNU-stack
                0x0000000000000000        0x0 C:\Users\Administrator\acados_neu\buildDS1403\install\lib\libacados.a(print.c.obj)
 .note.GNU-stack
                0x0000000000000000        0x0 C:\Users\Administrator\acados_neu\buildDS1403\install\lib\libacados.a(sim_interface.c.obj)
 .note.GNU-stack
                0x0000000000000000        0x0 C:\Users\Administrator\acados_neu\buildDS1403\install\lib\libacados.a(dense_qp_common.c.obj)
 .note.GNU-stack
                0x0000000000000000        0x0 C:\Users\Administrator\acados_neu\buildDS1403\install\lib\libacados.a(sim_collocation_utils.c.obj)
 .note.GNU-stack
                0x0000000000000000        0x0 C:\Users\Administrator\acados_neu\buildDS1403\install\lib\libblasfeo.a(d_aux_lib4.c.obj)
 .note.GNU-stack
                0x0000000000000000        0x0 C:\Users\Administrator\acados_neu\buildDS1403\install\lib\libblasfeo.a(d_blas1_lib4.c.obj)
 .note.GNU-stack
                0x0000000000000000        0x0 C:\Users\Administrator\acados_neu\buildDS1403\install\lib\libblasfeo.a(d_blas2_lib4.c.obj)
 .note.GNU-stack
                0x0000000000000000        0x0 C:\Users\Administrator\acados_neu\buildDS1403\install\lib\libblasfeo.a(d_blas3_diag_lib4.c.obj)
 .note.GNU-stack
                0x0000000000000000        0x0 C:\Users\Administrator\acados_neu\buildDS1403\install\lib\libblasfeo.a(d_blas3_lib4.c.obj)
 .note.GNU-stack
                0x0000000000000000        0x0 C:\Users\Administrator\acados_neu\buildDS1403\install\lib\libblasfeo.a(d_lapack_lib4.c.obj)
 .note.GNU-stack
                0x0000000000000000        0x0 C:\Users\Administrator\acados_neu\buildDS1403\install\lib\libblasfeo.a(d_aux_ref.c.obj)
 .note.GNU-stack
                0x0000000000000000        0x0 C:\Users\Administrator\acados_neu\buildDS1403\install\lib\libblasfeo.a(d_blas2_ref.c.obj)
 .note.GNU-stack
                0x0000000000000000        0x0 C:\Users\Administrator\acados_neu\buildDS1403\install\lib\libblasfeo.a(d_blas3_diag_ref.c.obj)
 .note.GNU-stack
                0x0000000000000000        0x0 C:\Users\Administrator\acados_neu\buildDS1403\install\lib\libblasfeo.a(d_blas3_ref.c.obj)
 .note.GNU-stack
                0x0000000000000000        0x0 C:\Users\Administrator\acados_neu\buildDS1403\install\lib\libblasfeo.a(d_lapack_ref.c.obj)
 .note.GNU-stack
                0x0000000000000000        0x0 C:\Users\Administrator\acados_neu\buildDS1403\install\lib\libblasfeo.a(kernel_align_generic.c.obj)
 .note.GNU-stack
                0x0000000000000000        0x0 C:\Users\Administrator\acados_neu\buildDS1403\install\lib\libblasfeo.a(kernel_d_aux_lib.c.obj)
 .note.GNU-stack
                0x0000000000000000        0x0 C:\Users\Administrator\acados_neu\buildDS1403\install\lib\libblasfeo.a(kernel_dgecp_lib4.c.obj)
 .note.GNU-stack
                0x0000000000000000        0x0 C:\Users\Administrator\acados_neu\buildDS1403\install\lib\libblasfeo.a(kernel_dgemm_4x4_lib4.c.obj)
 .note.GNU-stack
                0x0000000000000000        0x0 C:\Users\Administrator\acados_neu\buildDS1403\install\lib\libblasfeo.a(kernel_dgemm_diag_lib4.c.obj)
 .note.GNU-stack
                0x0000000000000000        0x0 C:\Users\Administrator\acados_neu\buildDS1403\install\lib\libblasfeo.a(kernel_dgemv_4_lib4.c.obj)
 .note.GNU-stack
                0x0000000000000000        0x0 C:\Users\Administrator\acados_neu\buildDS1403\install\lib\libblasfeo.a(kernel_dgeqrf_4_lib4.c.obj)
 .note.GNU-stack
                0x0000000000000000        0x0 C:\Users\Administrator\acados_neu\buildDS1403\install\lib\libblasfeo.a(kernel_dgetr_lib4.c.obj)
 .note.GNU-stack
                0x0000000000000000        0x0 C:\Users\Administrator\acados_neu\buildDS1403\install\lib\libblasfeo.a(kernel_dgetrf_pivot_lib4.c.obj)
 .note.GNU-stack
                0x0000000000000000        0x0 C:\Users\Administrator\acados_neu\buildDS1403\install\lib\libblasfeo.a(kernel_dpack_lib4.c.obj)
 .note.GNU-stack
                0x0000000000000000        0x0 C:\Users\Administrator\acados_neu\buildDS1403\install\lib\libblasfeo.a(kernel_dsymv_4_lib4.c.obj)
 .note.GNU-stack
                0x0000000000000000        0x0 C:\Users\Administrator\acados_neu\buildDS1403\install\lib\libhpipm.a(d_cond.c.obj)
 .note.GNU-stack
                0x0000000000000000        0x0 C:\Users\Administrator\acados_neu\buildDS1403\install\lib\libhpipm.a(d_cond_aux.c.obj)
 .note.GNU-stack
                0x0000000000000000        0x0 C:\Users\Administrator\acados_neu\buildDS1403\install\lib\libhpipm.a(d_part_cond.c.obj)
 .note.GNU-stack
                0x0000000000000000        0x0 C:\Users\Administrator\acados_neu\buildDS1403\install\lib\libhpipm.a(d_dense_qp.c.obj)
 .note.GNU-stack
                0x0000000000000000        0x0 C:\Users\Administrator\acados_neu\buildDS1403\install\lib\libhpipm.a(d_dense_qp_dim.c.obj)
 .note.GNU-stack
                0x0000000000000000        0x0 C:\Users\Administrator\acados_neu\buildDS1403\install\lib\libhpipm.a(d_dense_qp_ipm.c.obj)
 .note.GNU-stack
                0x0000000000000000        0x0 C:\Users\Administrator\acados_neu\buildDS1403\install\lib\libhpipm.a(d_dense_qp_kkt.c.obj)
 .note.GNU-stack
                0x0000000000000000        0x0 C:\Users\Administrator\acados_neu\buildDS1403\install\lib\libhpipm.a(d_dense_qp_res.c.obj)
 .note.GNU-stack
                0x0000000000000000        0x0 C:\Users\Administrator\acados_neu\buildDS1403\install\lib\libhpipm.a(d_dense_qp_sol.c.obj)
 .note.GNU-stack
                0x0000000000000000        0x0 C:\Users\Administrator\acados_neu\buildDS1403\install\lib\libhpipm.a(d_core_qp_ipm.c.obj)
 .note.GNU-stack
                0x0000000000000000        0x0 C:\Users\Administrator\acados_neu\buildDS1403\install\lib\libhpipm.a(d_core_qp_ipm_aux.c.obj)
 .note.GNU-stack
                0x0000000000000000        0x0 C:\Users\Administrator\acados_neu\buildDS1403\install\lib\libhpipm.a(d_ocp_qp.c.obj)
 .note.GNU-stack
                0x0000000000000000        0x0 C:\Users\Administrator\acados_neu\buildDS1403\install\lib\libhpipm.a(d_ocp_qp_dim.c.obj)
 .note.GNU-stack
                0x0000000000000000        0x0 C:\Users\Administrator\acados_neu\buildDS1403\install\lib\libhpipm.a(d_ocp_qp_ipm.c.obj)
 .note.GNU-stack
                0x0000000000000000        0x0 C:\Users\Administrator\acados_neu\buildDS1403\install\lib\libhpipm.a(d_ocp_qp_kkt.c.obj)
 .note.GNU-stack
                0x0000000000000000        0x0 C:\Users\Administrator\acados_neu\buildDS1403\install\lib\libhpipm.a(d_ocp_qp_red.c.obj)
 .note.GNU-stack
                0x0000000000000000        0x0 C:\Users\Administrator\acados_neu\buildDS1403\install\lib\libhpipm.a(d_ocp_qp_res.c.obj)
 .note.GNU-stack
                0x0000000000000000        0x0 C:\Users\Administrator\acados_neu\buildDS1403\install\lib\libhpipm.a(d_ocp_qp_sol.c.obj)
 .note.GNU-stack
                0x0000000000000000        0x0 C:\Users\Administrator\acados_neu\buildDS1403\install\lib\libhpipm.a(aux_mem.c.obj)
 .note.GNU-stack
                0x0000000000000000        0x0 C:\Users\Administrator\acados_neu\buildDS1403\install\lib\libhpipm.a(aux_string.c.obj)
 .note.GNU-stack
                0x0000000000000000        0x0 C:\Users\Administrator\acados_neu\buildDS1403\install\lib\libblasfeo.a(d_blas2_diag_lib.c.obj)
 .note.GNU-stack
                0x0000000000000000        0x0 c:/program files/dspace rcphil 2021-a/compiler/linux440_550/target/arm-linux-gnueabihf/bin/../lib\libc_nonshared.a(elf-init.oS)
 .note.GNU-stack
                0x0000000000000000        0x0 c:/program files/dspace rcphil 2021-a/compiler/linux440_550/target/arm-linux-gnueabihf/bin/../lib/gcc/arm-linux-gnueabihf/5.5.0/crtend.o
 .note.GNU-stack
                0x0000000000000000        0x0 c:/program files/dspace rcphil 2021-a/compiler/linux440_550/target/arm-linux-gnueabihf/bin/../lib/crtn.o

Memory Configuration

Name             Origin             Length             Attributes
*default*        0x0000000000000000 0xffffffffffffffff

Linker script and memory map

LOAD c:/program files/dspace rcphil 2021-a/compiler/linux440_550/target/arm-linux-gnueabihf/bin/../lib/crt1.o
LOAD c:/program files/dspace rcphil 2021-a/compiler/linux440_550/target/arm-linux-gnueabihf/bin/../lib/crti.o
LOAD c:/program files/dspace rcphil 2021-a/compiler/linux440_550/target/arm-linux-gnueabihf/bin/../lib/gcc/arm-linux-gnueabihf/5.5.0/crtbegin.o
                0x0000000000000000                _DSPACE_START = 0x0
                0x0000000000000000                _DSPACE_START_ = 0x0
                0x00000000000009ce                DS_TARGET_PLATFORM = 0x9ce
START GROUP
LOAD mdladapter_mdlfunctions.oarm
LOAD mdlCode_ap.oarm
LOAD data_in_ap.oarm
LOAD data_out_ap.oarm
LOAD fm_entry_ap.oarm
LOAD fm_exit_ap.oarm
LOAD dssimengine_accesspoint.oarm
LOAD dssimengine_api.oarm
LOAD dssimengine_main.oarm
LOAD rtosal_task.oarm
LOAD rtosal_taskap.oarm
LOAD rtosal_simengineap.oarm
LOAD IOCode_Data.oarm
LOAD dssimengine_accesspoint_Digital_Incremental_Encoder_In.oarm
LOAD dssimengine_accesspoint_Voltage_In.oarm
LOAD dssimengine_accesspoint_Voltage_Out.oarm
LOAD C:\Users\Administrator\Furuta\Furuta\Furuta_Acados\Build\Furuta_Model\Compile\Furuta_Model\Furuta_Model.a
LOAD C:\Users\Administrator\acados_neu\buildDS1403\install\lib\libacados.a
LOAD C:\Users\Administrator\acados_neu\buildDS1403\install\lib\libblasfeo.a
LOAD C:\Users\Administrator\acados_neu\buildDS1403\install\lib\libhpipm.a
LOAD C:\Program Files\dSPACE RCPHIL 2021-A\DS1403\Lib/libdsimbsdiodrv.so
LOAD C:\Program Files\dSPACE RCPHIL 2021-A\DS1403\Lib/libdsimbsaiodrv.so
LOAD C:\Program Files\dSPACE RCPHIL 2021-A\DS1403\Lib/libdscandrv.so
LOAD C:\Program Files\dSPACE RCPHIL 2021-A\DS1403\Lib/libdslindrv.so
LOAD C:\Program Files\dSPACE RCPHIL 2021-A\DS1403\Lib/libdsethernetinterfacemanagementdrv.so
END GROUP
LOAD C:\Program Files\dSPACE RCPHIL 2021-A\DS1403\Lib/libDsRtLib.so
LOAD c:/program files/dspace rcphil 2021-a/compiler/linux440_550/target/arm-linux-gnueabihf/bin/../lib/libpthread.so
START GROUP
LOAD c:/program files/dspace rcphil 2021-a/compiler/linux440_550/target/arm-linux-gnueabihf/bin/../lib\libpthread.so.0
LOAD c:/program files/dspace rcphil 2021-a/compiler/linux440_550/target/arm-linux-gnueabihf/bin/../lib\libpthread_nonshared.a
END GROUP
LOAD c:/program files/dspace rcphil 2021-a/compiler/linux440_550/target/arm-linux-gnueabihf/bin/../lib/librt.so
LOAD c:/program files/dspace rcphil 2021-a/compiler/linux440_550/target/arm-linux-gnueabihf/bin/../lib/gcc/arm-linux-gnueabihf/5.5.0/../../../../arm-linux-gnueabihf/lib/libstdc++.so
LOAD c:/program files/dspace rcphil 2021-a/compiler/linux440_550/target/arm-linux-gnueabihf/bin/../lib/libm.so
LOAD c:/program files/dspace rcphil 2021-a/compiler/linux440_550/target/arm-linux-gnueabihf/bin/../lib/gcc/arm-linux-gnueabihf/5.5.0/../../../../arm-linux-gnueabihf/lib/libgcc_s.so
START GROUP
LOAD c:/program files/dspace rcphil 2021-a/compiler/linux440_550/target/arm-linux-gnueabihf/bin/../lib/gcc/arm-linux-gnueabihf/5.5.0/../../../../arm-linux-gnueabihf/lib\libgcc_s.so.1
LOAD c:/program files/dspace rcphil 2021-a/compiler/linux440_550/target/arm-linux-gnueabihf/bin/../lib/gcc/arm-linux-gnueabihf/5.5.0\libgcc.a
END GROUP
LOAD c:/program files/dspace rcphil 2021-a/compiler/linux440_550/target/arm-linux-gnueabihf/bin/../lib/gcc/arm-linux-gnueabihf/5.5.0\libgcc.a
LOAD c:/program files/dspace rcphil 2021-a/compiler/linux440_550/target/arm-linux-gnueabihf/bin/../lib/libc.so
START GROUP
LOAD c:/program files/dspace rcphil 2021-a/compiler/linux440_550/target/arm-linux-gnueabihf/bin/../lib\libc.so.6
LOAD c:/program files/dspace rcphil 2021-a/compiler/linux440_550/target/arm-linux-gnueabihf/bin/../lib\libc_nonshared.a
LOAD c:/program files/dspace rcphil 2021-a/compiler/linux440_550/target/arm-linux-gnueabihf/bin/../lib\ld-linux-armhf.so.3
END GROUP
LOAD c:/program files/dspace rcphil 2021-a/compiler/linux440_550/target/arm-linux-gnueabihf/bin/../lib/gcc/arm-linux-gnueabihf/5.5.0/../../../../arm-linux-gnueabihf/lib/libgcc_s.so
START GROUP
LOAD c:/program files/dspace rcphil 2021-a/compiler/linux440_550/target/arm-linux-gnueabihf/bin/../lib/gcc/arm-linux-gnueabihf/5.5.0/../../../../arm-linux-gnueabihf/lib\libgcc_s.so.1
LOAD c:/program files/dspace rcphil 2021-a/compiler/linux440_550/target/arm-linux-gnueabihf/bin/../lib/gcc/arm-linux-gnueabihf/5.5.0\libgcc.a
END GROUP
LOAD c:/program files/dspace rcphil 2021-a/compiler/linux440_550/target/arm-linux-gnueabihf/bin/../lib/gcc/arm-linux-gnueabihf/5.5.0\libgcc.a
LOAD c:/program files/dspace rcphil 2021-a/compiler/linux440_550/target/arm-linux-gnueabihf/bin/../lib/gcc/arm-linux-gnueabihf/5.5.0/crtend.o
LOAD c:/program files/dspace rcphil 2021-a/compiler/linux440_550/target/arm-linux-gnueabihf/bin/../lib/crtn.o
                [!provide]                        PROVIDE (__executable_start, 0x10000)
                0x0000000000010134                . = (0x10000 + SIZEOF_HEADERS)

.interp         0x0000000000010134       0x19
 *(.interp)
 .interp        0x0000000000010134       0x19 c:/program files/dspace rcphil 2021-a/compiler/linux440_550/target/arm-linux-gnueabihf/bin/../lib/crt1.o

.note.ABI-tag   0x0000000000010150       0x20
 .note.ABI-tag  0x0000000000010150       0x20 c:/program files/dspace rcphil 2021-a/compiler/linux440_550/target/arm-linux-gnueabihf/bin/../lib/crt1.o

.note.gnu.build-id
                0x0000000000010170       0x24
 *(.note.gnu.build-id)
 .note.gnu.build-id
                0x0000000000010170       0x24 linker stubs

.hash           0x0000000000010194     0x45f4
 *(.hash)
 .hash          0x0000000000010194     0x45f4 c:/program files/dspace rcphil 2021-a/compiler/linux440_550/target/arm-linux-gnueabihf/bin/../lib/crt1.o

.gnu.hash
 *(.gnu.hash)

.dynsym         0x0000000000014788     0x9760
 *(.dynsym)
 .dynsym        0x0000000000014788     0x9760 c:/program files/dspace rcphil 2021-a/compiler/linux440_550/target/arm-linux-gnueabihf/bin/../lib/crt1.o

.dynstr         0x000000000001dee8    0x10934
 *(.dynstr)
 .dynstr        0x000000000001dee8    0x10934 c:/program files/dspace rcphil 2021-a/compiler/linux440_550/target/arm-linux-gnueabihf/bin/../lib/crt1.o

.gnu.version    0x000000000002e81c     0x12ec
 *(.gnu.version)
 .gnu.version   0x000000000002e81c     0x12ec c:/program files/dspace rcphil 2021-a/compiler/linux440_550/target/arm-linux-gnueabihf/bin/../lib/crt1.o

.gnu.version_d  0x000000000002fb08        0x0
 *(.gnu.version_d)
 .gnu.version_d
                0x000000000002fb08        0x0 c:/program files/dspace rcphil 2021-a/compiler/linux440_550/target/arm-linux-gnueabihf/bin/../lib/crt1.o

.gnu.version_r  0x000000000002fb08       0xb0
 *(.gnu.version_r)
 .gnu.version_r
                0x000000000002fb08       0xb0 c:/program files/dspace rcphil 2021-a/compiler/linux440_550/target/arm-linux-gnueabihf/bin/../lib/crt1.o

.rel.dyn        0x000000000002fbb8       0x28
 *(.rel.init)
 *(.rel.text .rel.text.* .rel.gnu.linkonce.t.*)
 *(.rel.fini)
 *(.rel.rodata .rel.rodata.* .rel.gnu.linkonce.r.*)
 *(.rel.data.rel.ro .rel.data.rel.ro.* .rel.gnu.linkonce.d.rel.ro.*)
 *(.rel.data .rel.data.* .rel.gnu.linkonce.d.*)
 *(.rel.tdata .rel.tdata.* .rel.gnu.linkonce.td.*)
 *(.rel.tbss .rel.tbss.* .rel.gnu.linkonce.tb.*)
 *(.rel.ctors)
 *(.rel.dtors)
 *(.rel.got)
 .rel.got       0x000000000002fbb8        0x8 c:/program files/dspace rcphil 2021-a/compiler/linux440_550/target/arm-linux-gnueabihf/bin/../lib/crt1.o
 *(.rel.bss .rel.bss.* .rel.gnu.linkonce.b.*)
 .rel.bss       0x000000000002fbc0       0x20 c:/program files/dspace rcphil 2021-a/compiler/linux440_550/target/arm-linux-gnueabihf/bin/../lib/crt1.o
                [!provide]                        PROVIDE (__rel_iplt_start, .)
 *(.rel.iplt)
 .rel.iplt      0x000000000002fbe0        0x0 c:/program files/dspace rcphil 2021-a/compiler/linux440_550/target/arm-linux-gnueabihf/bin/../lib/crt1.o
                [!provide]                        PROVIDE (__rel_iplt_end, .)

.rela.dyn       0x000000000002fbe0        0x0
 *(.rela.init)
 *(.rela.text .rela.text.* .rela.gnu.linkonce.t.*)
 *(.rela.fini)
 *(.rela.rodata .rela.rodata.* .rela.gnu.linkonce.r.*)
 *(.rela.data .rela.data.* .rela.gnu.linkonce.d.*)
 *(.rela.tdata .rela.tdata.* .rela.gnu.linkonce.td.*)
 *(.rela.tbss .rela.tbss.* .rela.gnu.linkonce.tb.*)
 *(.rela.ctors)
 *(.rela.dtors)
 *(.rela.got)
 *(.rela.bss .rela.bss.* .rela.gnu.linkonce.b.*)
                [!provide]                        PROVIDE (__rela_iplt_start, .)
 *(.rela.iplt)
                [!provide]                        PROVIDE (__rela_iplt_end, .)

.rel.plt        0x000000000002fbe0      0x348
 *(.rel.plt)
 .rel.plt       0x000000000002fbe0      0x348 c:/program files/dspace rcphil 2021-a/compiler/linux440_550/target/arm-linux-gnueabihf/bin/../lib/crt1.o

.rela.plt
 *(.rela.plt)

.init           0x000000000002ff28        0xc
 *(SORT(.init))
 .init          0x000000000002ff28        0x8 c:/program files/dspace rcphil 2021-a/compiler/linux440_550/target/arm-linux-gnueabihf/bin/../lib/crti.o
                0x000000000002ff28                _init
 .init          0x000000000002ff30        0x4 c:/program files/dspace rcphil 2021-a/compiler/linux440_550/target/arm-linux-gnueabihf/bin/../lib/crtn.o

.plt            0x000000000002ff34      0x500
 *(.plt)
 .plt           0x000000000002ff34      0x500 c:/program files/dspace rcphil 2021-a/compiler/linux440_550/target/arm-linux-gnueabihf/bin/../lib/crt1.o
                0x000000000002ff48                DsCApplication::DsCApplication(DsCErrorListPool&)
                0x000000000002ff54                operator new(unsigned int)@@GLIBCXX_3.4
                0x000000000002ff60                __fmod_finite@@GLIBC_2.15
                0x000000000002ff6c                DsCTask::setSimTimeVariable(double*)
                0x000000000002ff78                __pow_finite@@GLIBC_2.15
                0x000000000002ff84                sqrt@@GLIBC_2.4
                0x000000000002ff90                DsCImbsIoEncoderIn::setResolution(DsCErrorListPool&, unsigned int)
                0x000000000002ff9c                gettimeofday@@GLIBC_2.4
                0x000000000002ffa8                DsCTask::setDeadlineViolationFunction(DsCErrorListPool&, void (*)(DsCErrorListPool&, DsCTask*))
                0x000000000002ffb4                DsCImbsIoAnalogOut::create(DsCErrorListPool&, DsCApplication*)
                0x000000000002ffc0                DsCFcnModule::create(DsCErrorListPool&, DsCApplication*, char const*)
                0x000000000002ffcc                DsCImbsIoEncoderIn::setEncoderType(DsCErrorListPool&, unsigned int)
                0x000000000002ffd8                fmax@@GLIBC_2.4
                0x000000000002ffe4                DsCApplication::setSlowStart(DsCErrorListPool&, double, double)
                0x000000000002fff0                DsCIoDriver::setName(DsCErrorListPool&, char const*)
                0x000000000002fffc                free@@GLIBC_2.4
                0x0000000000030008                DsCTask::DsCTask(DsCErrorListPool&, DsCApplication*, char const*, unsigned int, unsigned int, unsigned int, unsigned int, unsigned int, unsigned int, unsigned int, DsCTask*, unsigned int)
                0x0000000000030014                DsCTask::bindTrigger(DsCErrorListPool&, DsCTask*, double)
                0x0000000000030020                DsCImbsIoAnalogIn::setMeasurementMode(DsCErrorListPool&, unsigned int)
                0x000000000003002c                DsNApplicationInterface::registerAppl(void*)
                0x0000000000030038                __wrap_exit
                0x0000000000030044                __wrap___assert_fail
                0x0000000000030050                DsNApplicationInterface::registerResource(char const*, void*)
                0x000000000003005c                DsCImbsIoAnalogIn::setEventGeneration(DsCErrorListPool&, unsigned int)
                0x0000000000030068                main
                0x0000000000030074                DsCTask::daqService(unsigned int)
                0x0000000000030080                DsCTask::getOverrunCounter()
                0x000000000003008c                DsCFcnModule::bindDriver(DsCErrorListPool&, DsCIoDriver*)
                0x0000000000030098                DsCImbsIoEncoderIn::setTimeout(DsCErrorListPool&, double)
                0x00000000000300a4                cos@@GLIBC_2.4
                0x00000000000300b0                DsCTimer::create(DsCErrorListPool&, double, double, char const*)
                0x00000000000300bc                memset@@GLIBC_2.4
                0x00000000000300c8                dsrtt_script_service_post_computation
                0x00000000000300d4                DsCImbsIoEncoderIn::setReverseDirection(DsCErrorListPool&, unsigned int)
                0x00000000000300e0                DsCTask::setTaskVariables(DsCErrorListPool&, tagDsSKernelTaskVariables*)
                0x00000000000300ec                DsCApplication::setIoResourceMap(DsCErrorListPool&, void*)
                0x00000000000300f8                snprintf@@GLIBC_2.4
                0x0000000000030104                DsCImbsIoEncoderIn::setGatedMode(DsCErrorListPool&, unsigned int)
                0x0000000000030110                DsCApplication::stop()
                0x000000000003011c                fopen@@GLIBC_2.4
                0x0000000000030128                pow@@GLIBC_2.4
                0x0000000000030134                DsCApplication::~DsCApplication()
                0x0000000000030140                DsCImbsIoEncoderIn::setMinimumPulseDuration(DsCErrorListPool&, double)
                0x000000000003014c                memmove@@GLIBC_2.4
                0x0000000000030158                DsCTask::bindFcnModule(DsCErrorListPool&, DsCFcnModule*)
                0x0000000000030164                DsCIoChannel::getInstance(DsCErrorListPool&, DsSIonetChannelAddress const*)
                0x0000000000030170                __wrap_putchar
                0x000000000003017c                DsCTask::getAbsoluteTime()
                0x0000000000030188                DsCImbsIoEncoderIn::setPositionInitial(DsCErrorListPool&, double)
                0x0000000000030194                DsCTask::getDescription()
                0x00000000000301a0                DsCImbsIoEncoderIn::setThreshold(DsCErrorListPool&, double)
                0x00000000000301ac                operator delete(void*)@@GLIBCXX_3.4
                0x00000000000301b8                __wrap_puts
                0x00000000000301c4                ceil@@GLIBC_2.4
                0x00000000000301d0                DsCImbsIoAnalogIn::setInputValueInitial(DsCErrorListPool&, double)
                0x00000000000301dc                DsCImbsIoEncoderIn::setIndexMode(DsCErrorListPool&, unsigned int)
                0x00000000000301e8                DsCApplication::errorMessage(unsigned char, unsigned int, unsigned int, char const*, unsigned int, unsigned int, char const*, char const*, ...)
                0x00000000000301f4                __cxa_end_cleanup@@CXXABI_1.3
                0x0000000000030200                __wrap_abort
                0x000000000003020c                DsCIoDriver::bindIoChannel(DsCErrorListPool&, DsCIoChannel*, unsigned int, unsigned int)
                0x0000000000030218                DsCTask::trigger()
                0x0000000000030224                DsBusAccessRP_updateAllInputs(DsCErrorListPool&)
                0x0000000000030230                DsCTask::getCurrent()
                0x000000000003023c                calloc@@GLIBC_2.4
                0x0000000000030248                DsCApplication::getFailureSimulationBlock(DsCErrorListPool&)
                0x0000000000030254                DsCImbsIoEncoderIn::setPolarity(DsCErrorListPool&, unsigned int)
                0x0000000000030260                __aeabi_uidiv@@GCC_3.5
                0x000000000003026c                __aeabi_idiv@@GCC_3.5
                0x0000000000030278                DsCTask::~DsCTask()
                0x0000000000030284                sincos@@GLIBC_2.4
                0x0000000000030290                memcpy@@GLIBC_2.4
                0x000000000003029c                __wrap_printf
                0x00000000000302a8                frexp@@GLIBC_2.4
                0x00000000000302b4                dsrtt_set_rtt_task(DsCTask*)
                0x00000000000302c0                malloc@@GLIBC_2.4
                0x00000000000302cc                dsrtt_script_service_pre_computation
                0x00000000000302d8                dsrtt_set_step_size
                0x00000000000302e4                DsCApplication::getDiagnosticBlock(DsCErrorListPool&)
                0x00000000000302f0                fprintf@@GLIBC_2.4
                0x00000000000302fc                fclose@@GLIBC_2.4
                0x0000000000030308                DsCApplication::terminate()
                0x0000000000030314                __aeabi_ul2d@@GCC_3.5
                0x0000000000030320                __isnan@@GLIBC_2.4
                0x000000000003032c                __gxx_personality_v0@@CXXABI_1.3
                0x0000000000030338                DsCImbsIoEncoderIn::setPositionValidInitial(DsCErrorListPool&, unsigned int)
                0x0000000000030344                DsCFcnModule::updateOutputs()
                0x0000000000030350                strcmp@@GLIBC_2.4
                0x000000000003035c                dsrtt_mp_register_config
                0x0000000000030368                DsCFcnModule::updateInputs()
                0x0000000000030374                DsBusAccessRP_updateAllOutputs(DsCErrorListPool&)
                0x0000000000030380                DsCApplication::createErrorList()
                0x000000000003038c                DsCImbsIoEncoderIn::setMeasurementMode(DsCErrorListPool&, unsigned int)
                0x0000000000030398                DsCImbsIoEncoderIn::setPositionUpdate(DsCErrorListPool&, unsigned int)
                0x00000000000303a4                __isoc99_fscanf@@GLIBC_2.7
                0x00000000000303b0                sin@@GLIBC_2.4
                0x00000000000303bc                __libc_start_main@@GLIBC_2.4
                0x00000000000303c8                DsCImbsIoEncoderIn::create(DsCErrorListPool&, DsCApplication*)
                0x00000000000303e0                DsCImbsIoEncoderIn::setSpeedInitial(DsCErrorListPool&, double)
                0x00000000000303ec                DsCTask::getCallCounter()
                0x00000000000303f8                strchr@@GLIBC_2.4
                0x0000000000030404                DsCImbsIoAnalogIn::create(DsCErrorListPool&, DsCApplication*)
                0x0000000000030410                DsCTask::bindBaseTask(DsCErrorListPool&, DsCTask*)
                0x000000000003041c                DsCTask::bindTrigger(DsCErrorListPool&, DsCTimer*)
                0x0000000000030428                floor@@GLIBC_2.4

.iplt           0x0000000000030434        0x0
 *(.iplt)
 .iplt          0x0000000000030434        0x0 c:/program files/dspace rcphil 2021-a/compiler/linux440_550/target/arm-linux-gnueabihf/bin/../lib/crt1.o

.text           0x0000000000030438    0xe7368
 *(.text.unlikely .text.*_unlikely .text.unlikely.*)
 *(.text.exit .text.exit.*)
 *(.text.startup .text.startup.*)
 .text.startup  0x0000000000030438       0x30 dssimengine_main.oarm
                0x0000000000030438                __registerApplDsCApplicationMain()
 .text.startup  0x0000000000030468       0x10 rtosal_simengineap.oarm
                0x0000000000030468                __registerRTTMPConfig()
 .text.startup  0x0000000000030478       0x14 IOCode_Data.oarm
                0x0000000000030478                __registerResourceg_ResourceMap()
 *(.text.hot .text.hot.*)
 *(.text .stub .text.* .gnu.linkonce.t.*)
 .text          0x000000000003048c       0x30 c:/program files/dspace rcphil 2021-a/compiler/linux440_550/target/arm-linux-gnueabihf/bin/../lib/crt1.o
                0x000000000003048c                _start
 .text          0x00000000000304bc       0x24 c:/program files/dspace rcphil 2021-a/compiler/linux440_550/target/arm-linux-gnueabihf/bin/../lib/crti.o
 .text          0x00000000000304e0       0xc8 c:/program files/dspace rcphil 2021-a/compiler/linux440_550/target/arm-linux-gnueabihf/bin/../lib/gcc/arm-linux-gnueabihf/5.5.0/crtbegin.o
 .text          0x00000000000305a8       0x38 mdladapter_mdlfunctions.oarm
                0x00000000000305a8                Furuta_Model_APTerminateSimulation
                0x00000000000305ac                Furuta_Model_APLastApplStateStopped
                0x00000000000305d8                Furuta_Model_APStopSimulation
                0x00000000000305dc                Furuta_Model_APPrintMessage
 .text          0x00000000000305e0        0x0 mdlCode_ap.oarm
 .text          0x00000000000305e0      0x188 data_in_ap.oarm
                0x0000000000030600                ap_read_Furuta_Model_DataInport3_P1_S1
                0x0000000000030630                ap_read_Furuta_Model_DataInport1_P1_S1
                0x0000000000030660                ap_read_Furuta_Model_DataInport1_P2_S1
                0x0000000000030690                ap_read_Furuta_Model_DataInport1_P3_S1
                0x00000000000306cc                ap_read_Furuta_Model_DataInport2_P1_S1
                0x00000000000306fc                ap_read_Furuta_Model_DataInport2_P2_S1
                0x000000000003072c                ap_read_Furuta_Model_DataInport2_P3_S1
 .text          0x0000000000030768       0x20 data_out_ap.oarm
                0x0000000000030770                ap_write_Furuta_Model_DataOutport1_P1_S1
 .text          0x0000000000030788       0x30 fm_entry_ap.oarm
                0x0000000000030788                ap_entry_Furuta_Model_SIDRoot_TID1
                0x0000000000030798                ap_entry_Furuta_Model_SIDS7_TIDtriggered
                0x00000000000307a8                ap_entry_Furuta_Model_SIDS8_TIDtriggered
 .text          0x00000000000307b8       0x30 fm_exit_ap.oarm
                0x00000000000307b8                ap_exit_Furuta_Model_SIDRoot_TID1
                0x00000000000307c8                ap_exit_Furuta_Model_SIDS7_TIDtriggered
                0x00000000000307d8                ap_exit_Furuta_Model_SIDS8_TIDtriggered
 .text          0x00000000000307e8      0x7f0 dssimengine_accesspoint.oarm
                0x00000000000307e8                ApSimEngineOnInit
                0x0000000000030840                ApSimEngineOnStart
                0x0000000000030888                ApSimEngineOnStop
                0x00000000000308d0                ApSimEngineOnTerminate
                0x00000000000308fc                ApSimEngineOnUnload
                0x0000000000030944                ApSimEngineOnInitMdl
                0x0000000000030970                ApSimEngineOnStartMdl
                0x000000000003099c                ApSimEngineOnStopMdl
                0x00000000000309c8                ApSimEngineOnTerminateMdl
                0x00000000000309f4                ApSimEngineOnUnloadMdl
                0x0000000000030a20                ApSimEngineOnInitImc
                0x0000000000030a4c                ApSimEngineOnStartImc
                0x0000000000030a78                ApSimEngineOnStopImc
                0x0000000000030aa4                ApSimEngineOnTerminateImc
                0x0000000000030ad0                ApSimEngineOnUnloadImc
                0x0000000000030afc                ApSimEngineOnInitIoPreRtosInit
                0x0000000000030bd4                ApSimEngineOnInitIoPostRtosInit
                0x0000000000030c28                ApSimEngineOnInitHwDiagnostics
                0x0000000000030d64                ApSimEngineOnStartIo
                0x0000000000030ddc                ApSimEngineOnStopIo
                0x0000000000030e0c                ApSimEngineOnTerminateIo
                0x0000000000030e38                ApSimEngineOnUnloadIo
                0x0000000000030e64                ApSimEngineOnInitRtos
                0x0000000000030eb8                ApSimEngineOnStartRtos
                0x0000000000030ee8                ApSimEngineOnStopRtos
                0x0000000000030f14                ApSimEngineOnTerminateRtos
                0x0000000000030f40                ApSimEngineOnUnloadRtos
                0x0000000000030f6c                ApSimEngineIdle
                0x0000000000030f8c                ApSimEngineRunTimeInit(DsCErrorListPool&, int)
 .text          0x0000000000030fd8       0x40 dssimengine_api.oarm
                0x0000000000030fd8                SimEngineLastApplStateGet()
                0x0000000000030fe8                SimEngineApplStop()
                0x0000000000030ff8                SimEngineApplTerminate()
                0x0000000000031008                SimEngineApplGet()
 .text          0x0000000000031018      0x1fc dssimengine_main.oarm
                0x0000000000031018                destroyApplication
                0x0000000000031030                getApplicationErrorList
                0x0000000000031040                DsCApplicationMain::~DsCApplicationMain()
                0x0000000000031040                DsCApplicationMain::~DsCApplicationMain()
                0x000000000003107c                DsCApplicationMain::~DsCApplicationMain()
                0x00000000000310c0                createApplication
                0x000000000003111c                DsCApplicationMain::onInit(DsCErrorListPool&)
                0x0000000000031148                DsCApplicationMain::onStart(DsCErrorListPool&)
                0x0000000000031174                DsCApplicationMain::onStop(DsCErrorListPool&)
                0x00000000000311a0                DsCApplicationMain::onTerminate(DsCErrorListPool&)
                0x00000000000311cc                DsCApplicationMain::onUnload(DsCErrorListPool&)
                0x00000000000311d4                DsCApplicationMain::onIdle(DsCErrorListPool&)
                0x00000000000311dc                DsCApplicationMain::DsCApplicationMain(DsCErrorListPool&)
                0x00000000000311dc                DsCApplicationMain::DsCApplicationMain(DsCErrorListPool&)
 .text          0x0000000000031214      0xc78 rtosal_task.oarm
                0x0000000000031214                DsCRtosAlPeriodic_Task_1::~DsCRtosAlPeriodic_Task_1()
                0x0000000000031214                DsCRtosAlPeriodic_Task_1::~DsCRtosAlPeriodic_Task_1()
                0x0000000000031240                DsCRtosAlPeriodic_Task_1::~DsCRtosAlPeriodic_Task_1()
                0x0000000000031274                DsCRtosAlAcadosSourceTask::~DsCRtosAlAcadosSourceTask()
                0x0000000000031274                DsCRtosAlAcadosSourceTask::~DsCRtosAlAcadosSourceTask()
                0x00000000000312a0                DsCRtosAlAcadosSourceTask::~DsCRtosAlAcadosSourceTask()
                0x00000000000312d4                DsCRtosAlAcadosTrigger::~DsCRtosAlAcadosTrigger()
                0x00000000000312d4                DsCRtosAlAcadosTrigger::~DsCRtosAlAcadosTrigger()
                0x0000000000031300                DsCRtosAlAcadosTrigger::~DsCRtosAlAcadosTrigger()
                0x0000000000031334                DsCRtosAlTask_iAsynchronous_Function_::~DsCRtosAlTask_iAsynchronous_Function_()
                0x0000000000031334                DsCRtosAlTask_iAsynchronous_Function_::~DsCRtosAlTask_iAsynchronous_Function_()
                0x0000000000031360                DsCRtosAlTask_iAsynchronous_Function_::~DsCRtosAlTask_iAsynchronous_Function_()
                0x0000000000031394                DsCRtosAlPeriodic_Task_1::onRun(DsCErrorListPool&)
                0x00000000000313d4                DsCRtosAlAcadosSourceTask::onRun(DsCErrorListPool&)
                0x00000000000313f4                DsCRtosAlAcadosTrigger::onRun(DsCErrorListPool&)
                0x0000000000031414                DsCRtosAlTask_iAsynchronous_Function_::onRun(DsCErrorListPool&)
                0x0000000000031434                DsCRtosAlTask_iAsynchronous_Function_::onOverrun(DsCErrorListPool&)
                0x0000000000031510                DsCRtosAlPeriodic_Task_1::onOverrun(DsCErrorListPool&)
                0x00000000000315ec                DsCRtosAlAcadosSourceTask::onOverrun(DsCErrorListPool&)
                0x00000000000316c8                DsCRtosAlAcadosTrigger::onOverrun(DsCErrorListPool&)
                0x00000000000317a4                DsCRtosAlPeriodic_Task_1::DsCRtosAlPeriodic_Task_1(DsCErrorListPool&, DsCApplication*, char const*, unsigned int, unsigned int, unsigned int, unsigned int, unsigned int, unsigned int, unsigned int, DsCTask*, unsigned int)
                0x00000000000317a4                DsCRtosAlPeriodic_Task_1::DsCRtosAlPeriodic_Task_1(DsCErrorListPool&, DsCApplication*, char const*, unsigned int, unsigned int, unsigned int, unsigned int, unsigned int, unsigned int, unsigned int, DsCTask*, unsigned int)
                0x0000000000031824                DsCRtosAlPeriodic_Task_1::create(DsCErrorListPool&, DsCApplication*, char const*, unsigned int, unsigned int, unsigned int, unsigned int, unsigned int, unsigned int, unsigned int, DsCTask*, unsigned int)
                0x00000000000318f8                DsCRtosAlAcadosSourceTask::DsCRtosAlAcadosSourceTask(DsCErrorListPool&, DsCApplication*, char const*, unsigned int, unsigned int, unsigned int, unsigned int, unsigned int, unsigned int, unsigned int, DsCTask*, unsigned int)
                0x00000000000318f8                DsCRtosAlAcadosSourceTask::DsCRtosAlAcadosSourceTask(DsCErrorListPool&, DsCApplication*, char const*, unsigned int, unsigned int, unsigned int, unsigned int, unsigned int, unsigned int, unsigned int, DsCTask*, unsigned int)
                0x0000000000031978                DsCRtosAlAcadosSourceTask::create(DsCErrorListPool&, DsCApplication*, char const*, unsigned int, unsigned int, unsigned int, unsigned int, unsigned int, unsigned int, unsigned int, DsCTask*, unsigned int)
                0x0000000000031a4c                DsCRtosAlAcadosTrigger::DsCRtosAlAcadosTrigger(DsCErrorListPool&, DsCApplication*, char const*, unsigned int, unsigned int, unsigned int, unsigned int, unsigned int, unsigned int, unsigned int, DsCTask*, unsigned int)
                0x0000000000031a4c                DsCRtosAlAcadosTrigger::DsCRtosAlAcadosTrigger(DsCErrorListPool&, DsCApplication*, char const*, unsigned int, unsigned int, unsigned int, unsigned int, unsigned int, unsigned int, unsigned int, DsCTask*, unsigned int)
                0x0000000000031acc                DsCRtosAlAcadosTrigger::create(DsCErrorListPool&, DsCApplication*, char const*, unsigned int, unsigned int, unsigned int, unsigned int, unsigned int, unsigned int, unsigned int, DsCTask*, unsigned int)
                0x0000000000031ba0                DsCRtosAlTask_iAsynchronous_Function_::DsCRtosAlTask_iAsynchronous_Function_(DsCErrorListPool&, DsCApplication*, char const*, unsigned int, unsigned int, unsigned int, unsigned int, unsigned int, unsigned int, unsigned int, DsCTask*, unsigned int)
                0x0000000000031ba0                DsCRtosAlTask_iAsynchronous_Function_::DsCRtosAlTask_iAsynchronous_Function_(DsCErrorListPool&, DsCApplication*, char const*, unsigned int, unsigned int, unsigned int, unsigned int, unsigned int, unsigned int, unsigned int, DsCTask*, unsigned int)
                0x0000000000031c20                DsCRtosAlTask_iAsynchronous_Function_::create(DsCErrorListPool&, DsCApplication*, char const*, unsigned int, unsigned int, unsigned int, unsigned int, unsigned int, unsigned int, unsigned int, DsCTask*, unsigned int)
                0x0000000000031cf4                RtosAlDefaultDeadlineViolationHandler(DsCErrorListPool&, DsCTask*)
                0x0000000000031db0                RtosAlProfilerSourcesInitialization()
                0x0000000000031db4                RtosAlHandleOverruns(DsCTask*, int)
 *fill*         0x0000000000031e8c        0x4 
 .text          0x0000000000031e90      0x120 rtosal_taskap.oarm
                0x0000000000031e90                RtosAlTask_01_TaskEntry
                0x0000000000031ea0                RtosAlTask_01_TaskExit
                0x0000000000031f18                RtosAlTask_02_TaskEntry
                0x0000000000031f1c                RtosAlTask_02_TaskExit
                0x0000000000031f6c                RtosAlTask_03_TaskEntry
                0x0000000000031f70                RtosAlTask_03_TaskExit
                0x0000000000031f74                dsmpb_TriggerFunction_Furuta_Model_TriggerEventPortSFcn_TID3_BT1
                0x0000000000031f84                DSMPB_AbsoluteTimeGet
                0x0000000000031fa8                RtosAlfuruta_model_Task_6529a514_a319_41fc_97f5_7ffd89b6ed41_TaskEntry
                0x0000000000031fac                RtosAlfuruta_model_Task_6529a514_a319_41fc_97f5_7ffd89b6ed41_TaskExit
 .text          0x0000000000031fb0      0x4b0 rtosal_simengineap.oarm
                0x0000000000031fb0                RtosAlOnInit(DsCErrorListPool&)
                0x00000000000322a8                RtosAlOnStart(DsCErrorListPool&)
 .text          0x0000000000032460        0x0 IOCode_Data.oarm
 .text          0x0000000000032460      0x6dc dssimengine_accesspoint_Digital_Incremental_Encoder_In.oarm
                0x0000000000032460                ApSimEngineOnInitIoPostRtosInit_ctlcBODY_0_Digital_Incremental_Encoder_In_i1_(DsCErrorListPool&)
                0x0000000000032650                ApSimEngineOnStartIo_ctlcBODY_0_Digital_Incremental_Encoder_In_i1_(DsCErrorListPool&)
                0x0000000000032740                ApSimEngineRunTimeInit_ctlcBODY_0_Digital_Incremental_Encoder_In_i1_(DsCErrorListPool&)
                0x00000000000327a8                ApSimEngineOnInitIoPreRtosInit_ctlcBODY_2_Digital_Incremental_Encoder_In_i1_(DsCErrorListPool&, DsCApplication*)
                0x00000000000327cc                ApSimEngineOnInitIoPostRtosInit_ctlcBODY_0_Digital_Incremental_Encoder_In_i2_(DsCErrorListPool&)
                0x00000000000329bc                ApSimEngineOnStartIo_ctlcBODY_0_Digital_Incremental_Encoder_In_i2_(DsCErrorListPool&)
                0x0000000000032ab0                ApSimEngineRunTimeInit_ctlcBODY_0_Digital_Incremental_Encoder_In_i2_(DsCErrorListPool&)
                0x0000000000032b18                ApSimEngineOnInitIoPreRtosInit_ctlcBODY_2_Digital_Incremental_Encoder_In_i2_(DsCErrorListPool&, DsCApplication*)
 *fill*         0x0000000000032b3c        0x4 
 .text          0x0000000000032b40      0x110 dssimengine_accesspoint_Voltage_In.oarm
                0x0000000000032b40                ApSimEngineRunTimeInit_ctlcBODY_0_Voltage_In_i1_(DsCErrorListPool&)
                0x0000000000032b60                ApSimEngineOnStartIo_ctlcBODY_0_Voltage_In_i1_(DsCErrorListPool&)
                0x0000000000032b80                ApSimEngineOnInitIoPreRtosInit_ctlcBODY_2_Voltage_In_i1_(DsCErrorListPool&, DsCApplication*)
                0x0000000000032ba4                ApSimEngineOnInitIoPostRtosInit_ctlcBODY_0_Voltage_In_i1_(DsCErrorListPool&)
 .text          0x0000000000032c50      0x108 dssimengine_accesspoint_Voltage_Out.oarm
                0x0000000000032c50                ApSimEngineRunTimeInit_ctlcBODY_0_Voltage_Out_i1_(DsCErrorListPool&)
                0x0000000000032c70                ApSimEngineOnStartIo_ctlcBODY_0_Voltage_Out_i1_(DsCErrorListPool&)
                0x0000000000032c90                ApSimEngineOnStopIo_ctlcBODY_0_Voltage_Out_i1_(DsCErrorListPool&)
                0x0000000000032cb0                ApSimEngineOnInitIoPreRtosInit_ctlcBODY_2_Voltage_Out_i1_(DsCErrorListPool&, DsCApplication*)
                0x0000000000032cd4                ApSimEngineOnInitIoPostRtosInit_ctlcBODY_0_Voltage_Out_i1_(DsCErrorListPool&)
 .text          0x0000000000032d58      0x290 C:\Users\Administrator\Furuta\Furuta\Furuta_Acados\Build\Furuta_Model\Compile\Furuta_Model\Furuta_Model.a(Furuta_Model_dsmpbap.oarm)
                0x0000000000032d58                dsmpb_event_task_Furuta_Model_TriggerEventPortSFcn_b_TID0_BT1
                0x0000000000032d5c                dsmpb_event_task_Furuta_Model_TriggerEventPortSFcn_TID3_BT2
                0x0000000000032f94                dsmpb_event_task_Furuta_Model_TriggerEventPortSFcn_g_TID4_BT3
 .text          0x0000000000032fe8      0x284 C:\Users\Administrator\Furuta\Furuta\Furuta_Acados\Build\Furuta_Model\Compile\Furuta_Model\Furuta_Model.a(Furuta_Model_dsrtmdlfcn.oarm)
                0x0000000000032fe8                Furuta_Model_DSRTInitMdl
                0x0000000000033058                Furuta_Model_DSRTStartMdl
                0x00000000000330f4                Furuta_Model_DSRTStopMdl
                0x0000000000033160                Furuta_Model_DSRTCheckForErrorStatus
                0x00000000000331c8                Furuta_Model_DSRTCheckForSimulationStopCondition
 .text          0x000000000003326c        0x8 C:\Users\Administrator\Furuta\Furuta\Furuta_Acados\Build\Furuta_Model\Compile\Furuta_Model\Furuta_Model.a(Furuta_Model_dsrttf.oarm)
                0x000000000003326c                Furuta_Model_DSRTMdlOutputs0
                0x0000000000033270                Furuta_Model_DSRTMdlUpdate0
 *fill*         0x0000000000033274        0x4 
 .text          0x0000000000033278     0x3618 C:\Users\Administrator\Furuta\Furuta\Furuta_Acados\Build\Furuta_Model\Compile\Furuta_Model\Furuta_Model.a(Furuta_Model.oarm)
                0x0000000000033278                Furuta_Mode_MATLABFunction_Init
                0x0000000000033284                Furuta_Mod_MATLABFunction_Reset
                0x0000000000033290                Furuta_Model_MATLABFunction
                0x00000000000332d8                Furuta_Model_Subsystem_Init
                0x0000000000033310                Furuta_Model_Subsystem_Reset
                0x0000000000033324                Furuta_Model_Subsystem
                0x0000000000033384                Furuta_Model_Acados_Init
                0x00000000000334b4                Furuta_Model_Acados_Disable
                0x0000000000033540                Furuta_Model_Acados_Start
                0x0000000000033620                Furuta_Model_Acados
                0x00000000000339c0                Furuta_Model_Acados_Term
                0x00000000000339d8                Furuta_Model_omega_1_ctrl
                0x00000000000339e0                rt_powd_snf
                0x0000000000033b58                rt_roundd_snf
                0x0000000000033bb8                Furuta_Model_output
                0x0000000000035774                Furuta_Model_derivatives
                0x00000000000358b0                Furuta_Model_update
                0x0000000000035b70                Furuta_Model_initialize
                0x0000000000036878                Furuta_Model_terminate
 .text          0x0000000000036890        0x0 C:\Users\Administrator\Furuta\Furuta\Furuta_Acados\Build\Furuta_Model\Compile\Furuta_Model\Furuta_Model.a(Furuta_Model_data.oarm)
 .text          0x0000000000036890      0x17c C:\Users\Administrator\Furuta\Furuta\Furuta_Acados\Build\Furuta_Model\Compile\Furuta_Model\Furuta_Model.a(Furuta_Model_dsrtvdf.oarm)
                0x00000000000369e8                Furuta_Model_rti_init_trc_pointers
 .text          0x0000000000036a0c      0x12c C:\Users\Administrator\Furuta\Furuta\Furuta_Acados\Build\Furuta_Model\Compile\Furuta_Model\Furuta_Model.a(rt_nonfinite.oarm)
                0x0000000000036a0c                rt_InitInfAndNaN
                0x0000000000036a58                rtIsInf
                0x0000000000036a8c                rtIsInfF
                0x0000000000036ac0                rtIsNaN
                0x0000000000036b04                rtIsNaNF
 .text          0x0000000000036b38       0xcc C:\Users\Administrator\Furuta\Furuta\Furuta_Acados\Build\Furuta_Model\Compile\Furuta_Model\Furuta_Model.a(rt_zcfcn.oarm)
                0x0000000000036b38                rt_ZCFcn
 .text          0x0000000000036c04      0x5ac C:\Users\Administrator\Furuta\Furuta\Furuta_Acados\Build\Furuta_Model\Compile\Furuta_Model\Furuta_Model.a(acados_solver_sfunction_furuta.oarm)
                0x000000000003716c                acados_solver_sfunction_furuta
 .text          0x00000000000371b0       0x40 C:\Users\Administrator\Furuta\Furuta\Furuta_Acados\Build\Furuta_Model\Compile\Furuta_Model\Furuta_Model.a(rtGetInf.oarm)
                0x00000000000371b0                rtGetInf
                0x00000000000371c4                rtGetInfF
                0x00000000000371d0                rtGetMinusInf
                0x00000000000371e4                rtGetMinusInfF
 .text          0x00000000000371f0       0x20 C:\Users\Administrator\Furuta\Furuta\Furuta_Acados\Build\Furuta_Model\Compile\Furuta_Model\Furuta_Model.a(rtGetNaN.oarm)
                0x00000000000371f0                rtGetNaN
                0x0000000000037204                rtGetNaNF
 .text          0x0000000000037210     0x2500 C:\Users\Administrator\Furuta\Furuta\Furuta_Acados\Build\Furuta_Model\Compile\Furuta_Model\Furuta_Model.a(acados_solver_furuta.oarm)
                0x0000000000037210                furuta_acados_create_capsule
                0x0000000000037218                furuta_acados_free_capsule
                0x0000000000037234                furuta_acados_update_time_steps
                0x0000000000037318                furuta_acados_create_1_set_plan
                0x000000000003742c                furuta_acados_create_2_create_and_set_dimensions
                0x0000000000037bb0                furuta_acados_create_3_create_and_set_functions
                0x0000000000037da8                furuta_acados_create_4_set_default_parameters
                0x0000000000037dac                furuta_acados_create_5_set_nlp_in
                0x000000000003870c                furuta_acados_create_6_set_opts
                0x0000000000038af4                furuta_acados_create
                0x0000000000038d90                furuta_acados_create_7_set_nlp_out
                0x0000000000038e94                furuta_acados_create_9_precompute
                0x0000000000038ed0                furuta_acados_create_with_discretization
                0x00000000000391e8                furuta_acados_update_qp_solver_cond_N
                0x0000000000039204                furuta_acados_reset
                0x00000000000393c0                furuta_acados_update_params
                0x0000000000039454                furuta_acados_update_params_sparse
                0x0000000000039490                furuta_acados_solve
                0x000000000003949c                furuta_acados_free
                0x0000000000039558                furuta_acados_print_stats
                0x00000000000396a0                furuta_acados_custom_update
                0x00000000000396d0                furuta_acados_get_nlp_in
                0x00000000000396d8                furuta_acados_get_nlp_out
                0x00000000000396e0                furuta_acados_get_sens_out
                0x00000000000396e8                furuta_acados_get_nlp_solver
                0x00000000000396f0                furuta_acados_get_nlp_config
                0x00000000000396f8                furuta_acados_get_nlp_opts
                0x0000000000039700                furuta_acados_get_nlp_dims
                0x0000000000039708                furuta_acados_get_nlp_plan
 .text          0x0000000000039710      0x378 C:\Users\Administrator\Furuta\Furuta\Furuta_Acados\Build\Furuta_Model\Compile\Furuta_Model\Furuta_Model.a(furuta_expl_ode_fun.oarm)
                0x0000000000039710                furuta_expl_ode_fun_sq
                0x0000000000039718                furuta_expl_ode_fun
                0x00000000000399a0                furuta_expl_ode_fun_alloc_mem
                0x00000000000399a8                furuta_expl_ode_fun_init_mem
                0x00000000000399b0                furuta_expl_ode_fun_free_mem
                0x00000000000399b4                furuta_expl_ode_fun_checkout
                0x00000000000399bc                furuta_expl_ode_fun_release
                0x00000000000399c0                furuta_expl_ode_fun_incref
                0x00000000000399c4                furuta_expl_ode_fun_decref
                0x00000000000399c8                furuta_expl_ode_fun_n_in
                0x00000000000399d0                furuta_expl_ode_fun_n_out
                0x00000000000399d8                furuta_expl_ode_fun_default_in
                0x00000000000399e8                furuta_expl_ode_fun_name_in
                0x0000000000039a00                furuta_expl_ode_fun_name_out
                0x0000000000039a18                furuta_expl_ode_fun_sparsity_in
                0x0000000000039a38                furuta_expl_ode_fun_sparsity_out
                0x0000000000039a50                furuta_expl_ode_fun_work
 .text          0x0000000000039a88     0x1158 C:\Users\Administrator\Furuta\Furuta\Furuta_Acados\Build\Furuta_Model\Compile\Furuta_Model\Furuta_Model.a(furuta_expl_vde_forw.oarm)
                0x0000000000039a88                furuta_expl_vde_forw_sq
                0x0000000000039a90                furuta_expl_vde_forw
                0x000000000003aacc                furuta_expl_vde_forw_alloc_mem
                0x000000000003aad4                furuta_expl_vde_forw_init_mem
                0x000000000003aadc                furuta_expl_vde_forw_free_mem
                0x000000000003aae0                furuta_expl_vde_forw_checkout
                0x000000000003aae8                furuta_expl_vde_forw_release
                0x000000000003aaec                furuta_expl_vde_forw_incref
                0x000000000003aaf0                furuta_expl_vde_forw_decref
                0x000000000003aaf4                furuta_expl_vde_forw_n_in
                0x000000000003aafc                furuta_expl_vde_forw_n_out
                0x000000000003ab04                furuta_expl_vde_forw_default_in
                0x000000000003ab18                furuta_expl_vde_forw_name_in
                0x000000000003ab30                furuta_expl_vde_forw_name_out
                0x000000000003ab50                furuta_expl_vde_forw_sparsity_in
                0x000000000003ab70                furuta_expl_vde_forw_sparsity_out
                0x000000000003aba8                furuta_expl_vde_forw_work
 .text          0x000000000003abe0     0x7d70 C:\Users\Administrator\acados_neu\buildDS1403\install\lib\libacados.a(ocp_nlp_common.c.obj)
                0x000000000003adc8                ocp_nlp_config_calculate_size
                0x000000000003ae64                ocp_nlp_config_assign
                0x000000000003af70                ocp_nlp_dims_calculate_size
                0x000000000003b060                ocp_nlp_dims_assign
                0x000000000003b32c                ocp_nlp_dims_set_opt_vars
                0x000000000003c130                ocp_nlp_dims_set_constraints
                0x000000000003c4bc                ocp_nlp_dims_set_cost
                0x000000000003c4ec                ocp_nlp_dims_set_dynamics
                0x000000000003c51c                ocp_nlp_in_calculate_size_self
                0x000000000003c538                ocp_nlp_in_calculate_size
                0x000000000003c5f0                ocp_nlp_in_assign_self
                0x000000000003c678                ocp_nlp_in_assign
                0x000000000003c7b0                ocp_nlp_out_calculate_size
                0x000000000003c8c8                ocp_nlp_out_assign
                0x000000000003cbe0                ocp_nlp_opts_calculate_size
                0x000000000003cce0                ocp_nlp_opts_assign
                0x000000000003cec0                ocp_nlp_opts_initialize_default
                0x000000000003d038                ocp_nlp_opts_update
                0x000000000003d110                ocp_nlp_opts_set
                0x000000000003d7cc                ocp_nlp_opts_set_at_stage
                0x000000000003d92c                ocp_nlp_workspace_calculate_size
                0x000000000003de44                ocp_nlp_workspace_assign
                0x000000000003e488                ocp_nlp_alias_memory_to_submodules
                0x000000000003ec0c                ocp_nlp_initialize_submodules
                0x000000000003ed28                ocp_nlp_initialize_t_slacks
                0x000000000003ee04                ocp_nlp_approximate_qp_matrices
                0x000000000003f268                ocp_nlp_approximate_qp_vectors_sqp
                0x000000000003f3e8                ocp_nlp_zero_order_qp_update
                0x000000000003f668                ocp_nlp_level_c_update
                0x000000000003f9e4                ocp_nlp_compute_merit_gradient
                0x0000000000040018                ocp_nlp_evaluate_merit_fun
                0x0000000000040330                ocp_nlp_line_search
                0x0000000000040904                ocp_nlp_update_variables_sqp
                0x0000000000040ba4                ocp_nlp_precompute_common
                0x0000000000040e80                ocp_nlp_res_calculate_size
                0x0000000000040f70                ocp_nlp_memory_calculate_size
                0x0000000000041350                ocp_nlp_res_assign
                0x00000000000414ec                ocp_nlp_memory_assign
                0x0000000000041af8                ocp_nlp_res_compute
                0x0000000000041eb8                ocp_nlp_res_get_inf_norm
                0x0000000000041ef4                copy_ocp_nlp_out
                0x0000000000042034                ocp_nlp_cost_compute
                0x00000000000421a4                ocp_nlp_params_jac_compute
                0x00000000000422b8                ocp_nlp_common_eval_param_sens
                0x00000000000426f8                ocp_nlp_common_eval_lagr_grad_p
 .text          0x0000000000042950        0xc C:\Users\Administrator\acados_neu\buildDS1403\install\lib\libacados.a(ocp_nlp_constraints_common.c.obj)
                0x0000000000042950                ocp_nlp_constraints_config_calculate_size
                0x0000000000042958                ocp_nlp_constraints_config_assign
 .text          0x000000000004295c        0xc C:\Users\Administrator\acados_neu\buildDS1403\install\lib\libacados.a(ocp_nlp_cost_common.c.obj)
                0x000000000004295c                ocp_nlp_cost_config_calculate_size
                0x0000000000042964                ocp_nlp_cost_config_assign
 .text          0x0000000000042968       0x30 C:\Users\Administrator\acados_neu\buildDS1403\install\lib\libacados.a(ocp_nlp_dynamics_common.c.obj)
                0x0000000000042968                ocp_nlp_dynamics_config_calculate_size
                0x0000000000042978                ocp_nlp_dynamics_config_assign
 .text          0x0000000000042998      0x3ac C:\Users\Administrator\acados_neu\buildDS1403\install\lib\libacados.a(ocp_nlp_reg_common.c.obj)
                0x0000000000042998                ocp_nlp_reg_config_calculate_size
                0x00000000000429a0                ocp_nlp_reg_config_assign
                0x00000000000429a4                ocp_nlp_reg_dims_calculate_size
                0x00000000000429b8                ocp_nlp_reg_dims_assign
                0x0000000000042a68                ocp_nlp_reg_dims_set
                0x0000000000042b6c                acados_reconstruct_A
                0x0000000000042c38                acados_mirror
                0x0000000000042cd0                acados_project
 *fill*         0x0000000000042d44        0x4 
 .text          0x0000000000042d48     0x1298 C:\Users\Administrator\acados_neu\buildDS1403\install\lib\libacados.a(ocp_qp_common.c.obj)
                0x0000000000042d48                ocp_qp_solver_config_calculate_size
                0x0000000000042d50                ocp_qp_solver_config_assign
                0x0000000000042d54                ocp_qp_condensing_config_calculate_size
                0x0000000000042d5c                ocp_qp_condensing_config_assign
                0x0000000000042d60                ocp_qp_dims_calculate_size
                0x0000000000042d9c                ocp_qp_dims_assign
                0x0000000000042de4                ocp_qp_dims_set
                0x0000000000042e00                ocp_qp_dims_get
                0x0000000000042e10                ocp_qp_in_calculate_size
                0x0000000000042e64                ocp_qp_in_assign
                0x0000000000042f00                ocp_qp_out_calculate_size
                0x0000000000042f54                ocp_qp_out_assign
                0x0000000000043004                ocp_qp_res_calculate_size
                0x0000000000043014                ocp_qp_res_assign
                0x0000000000043038                ocp_qp_res_workspace_calculate_size
                0x0000000000043048                ocp_qp_res_workspace_assign
                0x000000000004306c                ocp_qp_res_compute_nrm_inf
                0x00000000000432c4                ocp_qp_stack_slacks_dims
                0x00000000000434d8                ocp_qp_stack_slacks
                0x0000000000043dc8                ocp_qp_compute_t
                0x0000000000043f98                ocp_qp_res_compute
 .text          0x0000000000043fe0      0xd98 C:\Users\Administrator\acados_neu\buildDS1403\install\lib\libacados.a(ocp_qp_xcond_solver.c.obj)
                0x0000000000043fe0                ocp_qp_xcond_solver_opts_calculate_size
                0x0000000000044044                ocp_qp_xcond_solver_opts_assign
                0x00000000000440d8                ocp_qp_xcond_solver_opts_initialize_default
                0x000000000004413c                ocp_qp_xcond_solver_opts_update
                0x00000000000441a0                ocp_qp_xcond_solver_memory_calculate_size
                0x0000000000044210                ocp_qp_xcond_solver_memory_assign
                0x00000000000442fc                ocp_qp_xcond_solver_memory_reset
                0x0000000000044358                ocp_qp_xcond_solver_get
                0x0000000000044380                ocp_qp_xcond_solver_workspace_calculate_size
                0x00000000000443f0                ocp_qp_xcond_solver_dims_calculate_size
                0x0000000000044424                ocp_qp_xcond_solver_dims_assign
                0x0000000000044488                ocp_qp_xcond_solver_dims_set_
                0x00000000000444d8                ocp_qp_xcond_solver_dims_get_
                0x00000000000444e0                ocp_qp_xcond_solver_opts_set_
                0x00000000000445a8                ocp_qp_xcond_solver_memory_get
                0x000000000004468c                ocp_qp_xcond_condense_rhs_and_solve
                0x0000000000044854                ocp_qp_xcond_condense_lhs
                0x0000000000044944                ocp_qp_xcond_solver_eval_sens
                0x0000000000044a30                ocp_qp_xcond_solve
                0x0000000000044be8                ocp_qp_xcond_solver_config_calculate_size
                0x0000000000044c04                ocp_qp_xcond_solver_config_assign
                0x0000000000044c38                ocp_qp_xcond_solver_config_initialize_default
 .text          0x0000000000044d78     0x1190 C:\Users\Administrator\acados_neu\buildDS1403\install\lib\libacados.a(sim_common.c.obj)
                0x0000000000044d78                sim_config_calculate_size
                0x0000000000044d80                sim_config_assign
                0x0000000000044d84                sim_in_calculate_size
                0x0000000000044e4c                sim_in_assign
                0x0000000000044f8c                sim_in_assign_and_advance
                0x00000000000450c4                sim_in_set_
                0x000000000004544c                sim_out_calculate_size
                0x0000000000045504                sim_out_assign
                0x0000000000045628                sim_out_get_
                0x0000000000045bb8                sim_opts_set_
                0x0000000000045e3c                sim_opts_get_
 .text          0x0000000000045f08     0x2850 C:\Users\Administrator\acados_neu\buildDS1403\install\lib\libacados.a(math.c.obj)
                0x0000000000045f08                dgemm_nn_3l
                0x0000000000045fd0                daxpy_3l
                0x0000000000045ff8                dscal_3l
                0x000000000004601c                dmcopy
                0x0000000000046080                idamax_3l
                0x00000000000460e4                dswap_3l
                0x0000000000046128                dger_3l
                0x00000000000461c4                dgetf2_3l
                0x0000000000046428                dlaswp_3l
                0x000000000004655c                dtrsm_llnu_3l
                0x00000000000465f8                dtrsm_lunn_3l
                0x00000000000466dc                dgetrs_3l
                0x0000000000046770                dgesv_3l
                0x00000000000467e4                onenorm
                0x0000000000046870                padeapprox
                0x0000000000047a44                expm
                0x0000000000047c34                acados_eigen_decomposition
                0x00000000000485d8                minimum_of_doubles
                0x0000000000048608                neville_algorithm
 .text          0x0000000000048758      0x1a8 C:\Users\Administrator\acados_neu\buildDS1403\install\lib\libacados.a(mem.c.obj)
                0x0000000000048758                acados_get_pointer_size
                0x0000000000048760                make_int_multiple_of
                0x0000000000048794                align_char_to
                0x00000000000487c8                acados_malloc
                0x00000000000487cc                acados_calloc
                0x00000000000487d0                assign_and_advance_double_ptrs
                0x00000000000487e8                assign_and_advance_int_ptrs
                0x0000000000048800                assign_and_advance_blasfeo_dvec_structs
                0x000000000004881c                assign_and_advance_blasfeo_dmat_structs
                0x0000000000048838                assign_and_advance_blasfeo_dmat_ptrs
                0x0000000000048850                assign_and_advance_char
                0x0000000000048868                assign_and_advance_int
                0x0000000000048880                assign_and_advance_bool
                0x0000000000048898                assign_and_advance_double
                0x00000000000488b0                assign_and_advance_blasfeo_dvec_mem
                0x00000000000488d8                assign_and_advance_blasfeo_dmat_mem
 .text          0x0000000000048900       0x70 C:\Users\Administrator\acados_neu\buildDS1403\install\lib\libacados.a(timing.c.obj)
                0x0000000000048900                acados_tic
                0x0000000000048908                acados_toc
 .text          0x0000000000048970      0x208 C:\Users\Administrator\acados_neu\buildDS1403\install\lib\libacados.a(external_function_interface.c.obj)
                0x0000000000048970                external_function_param_generic_create
                0x0000000000048998                external_function_param_generic_free
                0x00000000000489a0                external_function_casadi_create
                0x00000000000489c8                external_function_casadi_create_array
                0x0000000000048a74                external_function_casadi_free
                0x0000000000048a7c                external_function_casadi_free_array
                0x0000000000048a84                external_function_param_casadi_create
                0x0000000000048aac                external_function_param_casadi_create_array
                0x0000000000048b68                external_function_param_casadi_free
                0x0000000000048b70                external_function_param_casadi_free_array
 .text          0x0000000000048b78     0x2b04 C:\Users\Administrator\acados_neu\buildDS1403\install\lib\libacados.a(ocp_nlp_interface.c.obj)
                0x0000000000048b78                ocp_nlp_plan_create
                0x0000000000049024                ocp_nlp_plan_destroy
                0x0000000000049028                ocp_nlp_config_create
                0x0000000000049384                ocp_nlp_config_destroy
                0x0000000000049388                ocp_nlp_dims_create
                0x00000000000493b8                ocp_nlp_dims_destroy
                0x00000000000493c0                ocp_nlp_in_create
                0x00000000000493f8                ocp_nlp_in_destroy
                0x0000000000049400                ocp_nlp_in_set
                0x000000000004945c                ocp_nlp_dynamics_model_set
                0x000000000004949c                ocp_nlp_cost_model_set
                0x00000000000494d4                ocp_nlp_constraints_model_set
                0x000000000004950c                ocp_nlp_constraints_model_get
                0x0000000000049544                ocp_nlp_out_create
                0x000000000004957c                ocp_nlp_out_destroy
                0x0000000000049584                ocp_nlp_out_set
                0x0000000000049794                ocp_nlp_out_get
                0x0000000000049a28                ocp_nlp_dims_get_from_attr
                0x0000000000049fb8                ocp_nlp_constraint_dims_get_from_attr
                0x000000000004a308                ocp_nlp_qp_dims_get_from_attr
                0x000000000004a80c                ocp_nlp_cost_dims_get_from_attr
                0x000000000004aabc                ocp_nlp_solver_opts_create
                0x000000000004ab10                ocp_nlp_solver_opts_set
                0x000000000004ab18                ocp_nlp_solver_opts_set_at_stage
                0x000000000004ab20                ocp_nlp_solver_opts_update
                0x000000000004ab28                ocp_nlp_solver_opts_destroy
                0x000000000004ab2c                ocp_nlp_solver_create
                0x000000000004abe0                ocp_nlp_solver_destroy
                0x000000000004abe4                ocp_nlp_solver_reset_qp_memory
                0x000000000004ac1c                ocp_nlp_solve
                0x000000000004ac54                ocp_nlp_precompute
                0x000000000004ac8c                ocp_nlp_eval_param_sens
                0x000000000004acdc                ocp_nlp_eval_lagrange_grad_p
                0x000000000004ad24                ocp_nlp_eval_residuals
                0x000000000004ad84                ocp_nlp_eval_cost
                0x000000000004ae40                ocp_nlp_eval_params_jac
                0x000000000004aef0                ocp_nlp_get
                0x000000000004af20                ocp_nlp_get_at_stage
                0x000000000004b518                ocp_nlp_set
 .text          0x000000000004b67c      0x74c C:\Users\Administrator\acados_neu\buildDS1403\install\lib\libacados.a(ocp_qp_interface.c.obj)
                0x000000000004b67c                ocp_qp_xcond_solver_config_initialize_from_plan
                0x000000000004b714                ocp_qp_xcond_solver_config_create
                0x000000000004b748                ocp_qp_xcond_solver_config_free
                0x000000000004b74c                ocp_qp_dims_create
                0x000000000004b778                ocp_qp_dims_free
                0x000000000004b77c                ocp_qp_xcond_solver_dims_create
                0x000000000004b7ac                ocp_qp_xcond_solver_dims_create_from_ocp_qp_dims
                0x000000000004baf8                ocp_qp_xcond_solver_dims_free
                0x000000000004bafc                ocp_qp_in_create
                0x000000000004bb24                ocp_qp_in_set
                0x000000000004bb3c                ocp_qp_in_free
                0x000000000004bb40                ocp_qp_out_create
                0x000000000004bb68                ocp_qp_out_free
                0x000000000004bb6c                ocp_qp_out_get
                0x000000000004bbc0                ocp_qp_xcond_solver_opts_create
                0x000000000004bc14                ocp_qp_xcond_solver_opts_free
                0x000000000004bc18                ocp_qp_xcond_solver_opts_set
                0x000000000004bc1c                ocp_qp_calculate_size
                0x000000000004bc58                ocp_qp_assign
                0x000000000004bcbc                ocp_qp_create
                0x000000000004bd08                ocp_qp_solve
                0x000000000004bd40                ocp_qp_solver_destroy
                0x000000000004bd44                ocp_qp_inf_norm_residuals
 .text          0x000000000004bdc8      0x5c8 C:\Users\Administrator\acados_neu\buildDS1403\install\lib\libacados.a(dense_qp_hpipm.c.obj)
                0x000000000004bdc8                dense_qp_hpipm_opts_update
                0x000000000004bdcc                dense_qp_hpipm_workspace_calculate_size
                0x000000000004bdd4                dense_qp_hpipm_opts_calculate_size
                0x000000000004be10                dense_qp_hpipm_opts_assign
                0x000000000004be60                dense_qp_hpipm_opts_initialize_default
                0x000000000004bee0                dense_qp_hpipm_opts_set
                0x000000000004c038                dense_qp_hpipm_memory_calculate_size
                0x000000000004c07c                dense_qp_hpipm_memory_assign
                0x000000000004c0d0                dense_qp_hpipm
                0x000000000004c1d0                dense_qp_hpipm_eval_sens
                0x000000000004c1e8                dense_qp_hpipm_memory_reset
                0x000000000004c204                dense_qp_hpipm_solver_get
                0x000000000004c220                dense_qp_hpipm_memory_get
                0x000000000004c2a0                dense_qp_hpipm_config_initialize_default
 .text          0x000000000004c390     0x2f54 C:\Users\Administrator\acados_neu\buildDS1403\install\lib\libacados.a(ocp_nlp_constraints_bgh.c.obj)
                0x000000000004c390                ocp_nlp_constraints_bgh_dims_assign
                0x000000000004c3e0                ocp_nlp_constraints_bgh_opts_calculate_size
                0x000000000004c3e8                ocp_nlp_constraints_bgh_opts_assign
                0x000000000004c3f0                ocp_nlp_constraints_bgh_opts_initialize_default
                0x000000000004c400                ocp_nlp_constraints_bgh_opts_update
                0x000000000004c404                ocp_nlp_constraints_bgh_memory_get_fun_ptr
                0x000000000004c408                ocp_nlp_constraints_bgh_memory_get_adj_ptr
                0x000000000004c410                ocp_nlp_constraints_bgh_memory_set_ux_ptr
                0x000000000004c418                ocp_nlp_constraints_bgh_memory_set_lam_ptr
                0x000000000004c420                ocp_nlp_constraints_bgh_memory_set_DCt_ptr
                0x000000000004c428                ocp_nlp_constraints_bgh_memory_set_RSQrq_ptr
                0x000000000004c430                ocp_nlp_constraints_bgh_memory_set_z_alg_ptr
                0x000000000004c438                ocp_nlp_constraints_bgh_memory_set_dzduxt_ptr
                0x000000000004c440                ocp_nlp_constraints_bgh_memory_set_idxb_ptr
                0x000000000004c448                ocp_nlp_constraints_bgh_memory_set_idxs_rev_ptr
                0x000000000004c450                ocp_nlp_constraints_bgh_memory_set_idxe_ptr
                0x000000000004c458                ocp_nlp_constraints_bgh_config_initialize_default
                0x000000000004c668                ocp_nlp_constraints_bgh_dims_calculate_size
                0x000000000004c690                ocp_nlp_constraints_bgh_dims_set
                0x000000000004c99c                ocp_nlp_constraints_bgh_dims_get
                0x000000000004ccc0                ocp_nlp_constraints_bgh_memory_calculate_size
                0x000000000004cd4c                ocp_nlp_constraints_bgh_model_calculate_size
                0x000000000004cdf0                ocp_nlp_constraints_bgh_workspace_calculate_size
                0x000000000004cea8                ocp_nlp_constraints_bgh_memory_assign
                0x000000000004cf40                ocp_nlp_constraints_bgh_model_assign
                0x000000000004d070                ocp_nlp_constraints_bgh_model_set
                0x000000000004dfa4                ocp_nlp_constraints_bgh_model_get
                0x000000000004e5c8                ocp_nlp_constraints_bgh_initialize
                0x000000000004e814                ocp_nlp_constraints_bgh_update_qp_vectors
                0x000000000004e910                ocp_nlp_constraints_bgh_opts_set
                0x000000000004ea98                ocp_nlp_constraints_bgh_compute_fun
                0x000000000004ed00                ocp_nlp_constraints_bgh_update_qp_matrices
 *fill*         0x000000000004f2e4        0x4 
 .text          0x000000000004f2e8     0x2870 C:\Users\Administrator\acados_neu\buildDS1403\install\lib\libacados.a(ocp_nlp_constraints_bgp.c.obj)
                0x000000000004f2e8                ocp_nlp_constraints_bgp_dims_calculate_size
                0x000000000004f2f0                ocp_nlp_constraints_bgp_dims_assign
                0x000000000004f344                ocp_nlp_constraints_bgp_opts_calculate_size
                0x000000000004f34c                ocp_nlp_constraints_bgp_opts_assign
                0x000000000004f354                ocp_nlp_constraints_bgp_opts_initialize_default
                0x000000000004f364                ocp_nlp_constraints_bgp_opts_update
                0x000000000004f368                ocp_nlp_constraints_bgp_memory_get_fun_ptr
                0x000000000004f36c                ocp_nlp_constraints_bgp_memory_get_adj_ptr
                0x000000000004f374                ocp_nlp_constraints_bgp_memory_set_ux_ptr
                0x000000000004f37c                ocp_nlp_constraints_bgp_memory_set_lam_ptr
                0x000000000004f384                ocp_nlp_constraints_bgp_memory_set_DCt_ptr
                0x000000000004f38c                ocp_nlp_constraints_bgp_memory_set_RSQrq_ptr
                0x000000000004f394                ocp_nlp_constraints_bgp_memory_set_z_alg_ptr
                0x000000000004f39c                ocp_nlp_constraints_bgp_memory_set_dzduxt_ptr
                0x000000000004f3a4                ocp_nlp_constraints_bgp_memory_set_idxb_ptr
                0x000000000004f3ac                ocp_nlp_constraints_bgp_memory_set_idxs_rev_ptr
                0x000000000004f3b4                ocp_nlp_constraints_bgp_memory_set_idxe_ptr
                0x000000000004f3bc                ocp_nlp_constraints_bgp_config_initialize_default
                0x000000000004f5cc                ocp_nlp_constraints_bgp_dims_set
                0x000000000004f928                ocp_nlp_constraints_bgp_dims_get
                0x000000000004fc44                ocp_nlp_constraints_bgp_memory_calculate_size
                0x000000000004fc98                ocp_nlp_constraints_bgp_model_calculate_size
                0x000000000004fd10                ocp_nlp_constraints_bgp_memory_assign
                0x000000000004fd98                ocp_nlp_constraints_bgp_model_assign
                0x000000000004fec0                ocp_nlp_constraints_bgp_model_set
                0x0000000000050dc4                ocp_nlp_constraints_bgp_model_get
                0x0000000000050e68                ocp_nlp_constraints_bgp_workspace_calculate_size
                0x0000000000050f48                ocp_nlp_constraints_bgp_initialize
                0x0000000000051194                ocp_nlp_constraints_bgp_update_qp_vectors
                0x0000000000051290                ocp_nlp_constraints_bgp_opts_set
                0x0000000000051414                ocp_nlp_constraints_bgp_compute_fun
                0x0000000000051678                ocp_nlp_constraints_bgp_update_qp_matrices
 .text          0x0000000000051b58     0x13c4 C:\Users\Administrator\acados_neu\buildDS1403\install\lib\libacados.a(ocp_nlp_cost_conl.c.obj)
                0x0000000000051b58                ocp_nlp_cost_conl_dims_calculate_size
                0x0000000000051b60                ocp_nlp_cost_conl_dims_assign
                0x0000000000051b68                ocp_nlp_cost_conl_opts_assign
                0x0000000000051b70                ocp_nlp_cost_conl_opts_initialize_default
                0x0000000000051b7c                ocp_nlp_cost_conl_opts_update
                0x0000000000051b80                ocp_nlp_cost_conl_memory_get_fun_ptr
                0x0000000000051b88                ocp_nlp_cost_conl_memory_get_W_chol_ptr
                0x0000000000051b90                ocp_nlp_cost_conl_memory_get_W_chol_diag_ptr
                0x0000000000051b98                ocp_nlp_cost_conl_get_outer_hess_is_diag_ptr
                0x0000000000051ba0                ocp_nlp_cost_conl_memory_get_grad_ptr
                0x0000000000051ba4                ocp_nlp_cost_conl_model_get_y_ref_ptr
                0x0000000000051bac                ocp_nlp_cost_conl_memory_set_RSQrq_ptr
                0x0000000000051bb4                ocp_nlp_cost_conl_memory_set_Z_ptr
                0x0000000000051bbc                ocp_nlp_cost_conl_memory_set_ux_ptr
                0x0000000000051bc4                ocp_nlp_cost_conl_memory_set_z_alg_ptr
                0x0000000000051bcc                ocp_nlp_cost_conl_memory_set_dzdux_tran_ptr
                0x0000000000051bd4                ocp_nlp_cost_conl_precompute
                0x0000000000051bd8                ocp_nlp_cost_conl_config_initialize_default
                0x0000000000051e08                ocp_nlp_cost_conl_dims_set
                0x0000000000051ef0                ocp_nlp_cost_conl_model_calculate_size
                0x0000000000051f14                ocp_nlp_cost_conl_model_assign
                0x0000000000051fcc                ocp_nlp_cost_conl_compute_jac_p
                0x0000000000051fe8                ocp_nlp_cost_conl_eval_grad_p
                0x0000000000052004                ocp_nlp_cost_conl_model_set
                0x0000000000052244                ocp_nlp_cost_conl_opts_calculate_size
                0x0000000000052268                ocp_nlp_cost_conl_memory_calculate_size
                0x00000000000522b0                ocp_nlp_cost_conl_workspace_calculate_size
                0x0000000000052350                ocp_nlp_cost_conl_memory_assign
                0x00000000000523cc                ocp_nlp_cost_conl_dims_get
                0x000000000005241c                ocp_nlp_cost_conl_opts_set
                0x0000000000052588                ocp_nlp_cost_conl_compute_fun
                0x00000000000526e0                ocp_nlp_cost_conl_update_qp_matrices
                0x0000000000052bb8                ocp_nlp_cost_conl_compute_gradient
                0x0000000000052e28                ocp_nlp_cost_conl_initialize
 *fill*         0x0000000000052f1c        0x4 
 .text          0x0000000000052f20     0x1440 C:\Users\Administrator\acados_neu\buildDS1403\install\lib\libacados.a(ocp_nlp_cost_external.c.obj)
                0x0000000000052f20                ocp_nlp_cost_external_dims_calculate_size
                0x0000000000052f28                ocp_nlp_cost_external_dims_assign
                0x0000000000052f44                ocp_nlp_cost_external_opts_assign
                0x0000000000052f4c                ocp_nlp_cost_external_opts_initialize_default
                0x0000000000052f5c                ocp_nlp_cost_external_opts_update
                0x0000000000052f60                ocp_nlp_cost_external_memory_get_fun_ptr
                0x0000000000052f68                ocp_nlp_cost_external_memory_get_grad_ptr
                0x0000000000052f70                ocp_nlp_cost_external_memory_set_RSQrq_ptr
                0x0000000000052f78                ocp_nlp_cost_external_memory_set_Z_ptr
                0x0000000000052f80                ocp_nlp_cost_external_memory_set_ux_ptr
                0x0000000000052f88                ocp_nlp_cost_external_memory_set_z_alg_ptr
                0x0000000000052f90                ocp_nlp_cost_external_memory_set_dzdux_tran_ptr
                0x0000000000052f98                ocp_nlp_cost_external_precompute
                0x0000000000052f9c                ocp_nlp_cost_external_config_initialize_default
                0x000000000005319c                ocp_nlp_cost_external_dims_set
                0x000000000005326c                ocp_nlp_cost_external_dims_get
                0x000000000005328c                ocp_nlp_cost_external_model_calculate_size
                0x00000000000532bc                ocp_nlp_cost_external_memory_calculate_size
                0x000000000005330c                ocp_nlp_cost_external_workspace_calculate_size
                0x0000000000053380                ocp_nlp_cost_external_model_assign
                0x000000000005340c                ocp_nlp_cost_external_memory_assign
                0x0000000000053488                ocp_nlp_cost_external_model_set
                0x0000000000053734                ocp_nlp_cost_external_opts_calculate_size
                0x0000000000053758                ocp_nlp_cost_external_memory_get_params_grad
                0x000000000005378c                ocp_nlp_cost_external_initialize
                0x00000000000537b4                ocp_nlp_cost_external_opts_set
                0x000000000005384c                ocp_nlp_cost_external_update_qp_matrices
                0x0000000000053cd8                ocp_nlp_cost_external_eval_grad_p
                0x0000000000053e1c                ocp_nlp_cost_external_compute_jac_p
                0x0000000000053f9c                ocp_nlp_cost_external_compute_fun
                0x0000000000054164                ocp_nlp_cost_external_compute_gradient
 .text          0x0000000000054360     0x1b64 C:\Users\Administrator\acados_neu\buildDS1403\install\lib\libacados.a(ocp_nlp_cost_ls.c.obj)
                0x0000000000054360                ocp_nlp_cost_ls_dims_calculate_size
                0x0000000000054368                ocp_nlp_cost_ls_dims_assign
                0x0000000000054370                ocp_nlp_cost_ls_opts_assign
                0x0000000000054378                ocp_nlp_cost_ls_opts_initialize_default
                0x0000000000054384                ocp_nlp_cost_ls_opts_update
                0x0000000000054388                ocp_nlp_cost_ls_memory_get_fun_ptr
                0x0000000000054390                ocp_nlp_cost_ls_memory_get_grad_ptr
                0x0000000000054398                ocp_nlp_cost_ls_memory_set_RSQrq_ptr
                0x00000000000543a0                ocp_nlp_cost_ls_memory_set_Z_ptr
                0x00000000000543a8                ocp_nlp_cost_ls_memory_set_ux_ptr
                0x00000000000543b0                ocp_nlp_cost_ls_memory_set_z_alg_ptr
                0x00000000000543b8                ocp_nlp_cost_ls_memory_set_dzdux_tran_ptr
                0x00000000000543c0                ocp_nlp_cost_ls_config_initialize_default
                0x00000000000545b0                ocp_nlp_cost_ls_dims_set
                0x0000000000054694                ocp_nlp_cost_ls_compute_gradient
                0x00000000000546b0                ocp_nlp_cost_ls_compute_jac_p
                0x00000000000546cc                ocp_nlp_cost_ls_eval_grad_p
                0x00000000000546e8                ocp_nlp_cost_ls_memory_calculate_size
                0x0000000000054758                ocp_nlp_cost_ls_workspace_calculate_size
                0x00000000000547f0                ocp_nlp_cost_ls_model_calculate_size
                0x000000000005489c                ocp_nlp_cost_ls_opts_calculate_size
                0x00000000000548c4                ocp_nlp_cost_ls_memory_assign
                0x0000000000054964                ocp_nlp_cost_ls_model_assign
                0x0000000000054aac                ocp_nlp_cost_ls_model_set
                0x0000000000054ecc                ocp_nlp_cost_ls_dims_get
                0x0000000000054f1c                ocp_nlp_cost_ls_opts_set
                0x0000000000054fa8                ocp_nlp_cost_ls_update_qp_matrices
                0x0000000000055510                ocp_nlp_cost_ls_precompute
                0x00000000000557a8                ocp_nlp_cost_ls_initialize
                0x0000000000055b30                ocp_nlp_cost_ls_compute_fun
 *fill*         0x0000000000055ec4        0x4 
 .text          0x0000000000055ec8     0x16dc C:\Users\Administrator\acados_neu\buildDS1403\install\lib\libacados.a(ocp_nlp_cost_nls.c.obj)
                0x0000000000055ec8                ocp_nlp_cost_nls_dims_calculate_size
                0x0000000000055ed0                ocp_nlp_cost_nls_dims_assign
                0x0000000000055ed8                ocp_nlp_cost_nls_opts_assign
                0x0000000000055ee0                ocp_nlp_cost_nls_opts_initialize_default
                0x0000000000055eec                ocp_nlp_cost_nls_opts_update
                0x0000000000055ef0                ocp_nlp_cost_nls_memory_get_fun_ptr
                0x0000000000055ef8                ocp_nlp_cost_nls_memory_get_W_chol_ptr
                0x0000000000055efc                ocp_nlp_cost_nls_memory_get_W_chol_diag_ptr
                0x0000000000055f04                ocp_nlp_cost_nls_get_outer_hess_is_diag_ptr
                0x0000000000055f0c                ocp_nlp_cost_nls_model_get_y_ref_ptr
                0x0000000000055f14                ocp_nlp_cost_nls_memory_get_grad_ptr
                0x0000000000055f1c                ocp_nlp_cost_nls_memory_set_RSQrq_ptr
                0x0000000000055f24                ocp_nlp_cost_nls_memory_set_Z_ptr
                0x0000000000055f2c                ocp_nlp_cost_nls_memory_set_ux_ptr
                0x0000000000055f34                ocp_nlp_cost_nls_memory_set_z_alg_ptr
                0x0000000000055f3c                ocp_nlp_cost_nls_memory_set_dzdux_tran_ptr
                0x0000000000055f44                ocp_nlp_cost_nls_config_initialize_default
                0x0000000000056174                ocp_nlp_cost_nls_dims_set
                0x000000000005625c                ocp_nlp_cost_nls_model_calculate_size
                0x0000000000056298                ocp_nlp_cost_nls_memory_calculate_size
                0x0000000000056308                ocp_nlp_cost_nls_workspace_calculate_size
                0x00000000000563a4                ocp_nlp_cost_nls_memory_assign
                0x0000000000056444                ocp_nlp_cost_nls_model_assign
                0x000000000005652c                ocp_nlp_cost_nls_compute_gradient
                0x0000000000056548                ocp_nlp_cost_nls_compute_jac_p
                0x0000000000056564                ocp_nlp_cost_nls_eval_grad_p
                0x0000000000056580                ocp_nlp_cost_nls_model_set
                0x000000000005691c                ocp_nlp_cost_nls_opts_calculate_size
                0x0000000000056940                ocp_nlp_cost_nls_dims_get
                0x0000000000056990                ocp_nlp_cost_nls_opts_set
                0x0000000000056b2c                ocp_nlp_cost_nls_update_qp_matrices
                0x0000000000057174                ocp_nlp_cost_nls_compute_fun
                0x00000000000573a4                ocp_nlp_cost_nls_initialize
                0x00000000000574b8                ocp_nlp_cost_nls_precompute
 *fill*         0x00000000000575a4        0x4 
 .text          0x00000000000575a8     0x1afc C:\Users\Administrator\acados_neu\buildDS1403\install\lib\libacados.a(ocp_nlp_dynamics_cont.c.obj)
                0x00000000000575a8                ocp_nlp_dynamics_cont_dims_calculate_size
                0x00000000000575c0                ocp_nlp_dynamics_cont_dims_set
                0x00000000000576f4                ocp_nlp_dynamics_cont_dims_get
                0x0000000000057798                ocp_nlp_dynamics_cont_opts_calculate_size
                0x00000000000577b4                ocp_nlp_dynamics_cont_opts_initialize_default
                0x000000000005785c                ocp_nlp_dynamics_cont_opts_update
                0x0000000000057870                ocp_nlp_dynamics_cont_memory_get_fun_ptr
                0x0000000000057874                ocp_nlp_dynamics_cont_memory_get_adj_ptr
                0x000000000005787c                ocp_nlp_dynamics_cont_memory_set_ux_ptr
                0x0000000000057884                ocp_nlp_dynamics_cont_memory_set_ux1_ptr
                0x000000000005788c                ocp_nlp_dynamics_cont_memory_set_pi_ptr
                0x0000000000057894                ocp_nlp_dynamics_cont_memory_set_BAbt_ptr
                0x000000000005789c                ocp_nlp_dynamics_cont_memory_set_RSQrq_ptr
                0x00000000000578a4                ocp_nlp_dynamics_cont_memory_set_dzduxt_ptr
                0x00000000000578ac                ocp_nlp_dynamics_cont_memory_set_sim_guess_ptr
                0x00000000000578b8                ocp_nlp_dynamics_cont_memory_set_z_alg_ptr
                0x00000000000578c0                ocp_nlp_dynamics_cont_initialize
                0x00000000000578c4                ocp_nlp_dynamics_cont_config_initialize_default
                0x0000000000057b34                ocp_nlp_dynamics_cont_dims_assign
                0x0000000000057b98                ocp_nlp_dynamics_cont_opts_assign
                0x0000000000057bfc                ocp_nlp_dynamics_cont_model_assign
                0x0000000000057c60                ocp_nlp_dynamics_cont_opts_set
                0x0000000000057d68                ocp_nlp_dynamics_cont_opts_get
                0x0000000000057dec                ocp_nlp_dynamics_cont_memory_calculate_size
                0x0000000000057e80                ocp_nlp_dynamics_cont_model_calculate_size
                0x0000000000057ec8                ocp_nlp_dynamics_cont_memory_assign
                0x0000000000057f6c                ocp_nlp_dynamics_cont_memory_set
                0x0000000000058088                ocp_nlp_dynamics_cont_memory_get_params_grad
                0x00000000000580a4                ocp_nlp_dynamics_cont_memory_get_params_lag_grad
                0x00000000000580c0                ocp_nlp_dynamics_cont_compute_jac_hess_p
                0x00000000000580dc                ocp_nlp_dynamics_cont_compute_adj_p
                0x00000000000580f8                ocp_nlp_dynamics_cont_workspace_calculate_size
                0x00000000000581a4                ocp_nlp_dynamics_cont_memory_get
                0x0000000000058250                ocp_nlp_dynamics_cont_model_set
                0x00000000000582c0                ocp_nlp_dynamics_cont_update_qp_matrices
                0x0000000000058850                ocp_nlp_dynamics_cont_precompute
                0x0000000000058990                ocp_nlp_dynamics_cont_compute_fun
                0x0000000000058ca8                ocp_nlp_dynamics_cont_compute_fun_and_adj
 *fill*         0x00000000000590a4        0x4 
 .text          0x00000000000590a8      0xfb0 C:\Users\Administrator\acados_neu\buildDS1403\install\lib\libacados.a(ocp_nlp_dynamics_disc.c.obj)
                0x00000000000590a8                ocp_nlp_dynamics_disc_dims_calculate_size
                0x00000000000590b0                ocp_nlp_dynamics_disc_dims_assign
                0x00000000000590c0                ocp_nlp_dynamics_disc_opts_calculate_size
                0x00000000000590c8                ocp_nlp_dynamics_disc_opts_initialize_default
                0x00000000000590dc                ocp_nlp_dynamics_disc_memory_get_fun_ptr
                0x00000000000590e4                ocp_nlp_dynamics_disc_memory_get_adj_ptr
                0x00000000000590ec                ocp_nlp_dynamics_disc_memory_set_ux_ptr
                0x00000000000590f4                ocp_nlp_dynamics_disc_memory_set_ux1_ptr
                0x00000000000590fc                ocp_nlp_dynamics_disc_memory_set_pi_ptr
                0x0000000000059104                ocp_nlp_dynamics_disc_memory_set_BAbt_ptr
                0x000000000005910c                ocp_nlp_dynamics_disc_memory_set_RSQrq_ptr
                0x0000000000059114                ocp_nlp_dynamics_disc_memory_set_sim_guess_ptr
                0x0000000000059118                ocp_nlp_dynamics_disc_memory_set_z_alg_ptr
                0x000000000005911c                ocp_nlp_dynamics_disc_model_calculate_size
                0x0000000000059124                ocp_nlp_dynamics_disc_model_assign
                0x000000000005912c                ocp_nlp_dynamics_disc_initialize
                0x0000000000059130                ocp_nlp_dynamics_disc_compute_jac_hess_p
                0x00000000000591cc                ocp_nlp_dynamics_disc_precompute
                0x00000000000591d4                ocp_nlp_dynamics_disc_config_initialize_default
                0x0000000000059434                ocp_nlp_dynamics_disc_dims_set
                0x000000000005953c                ocp_nlp_dynamics_disc_dims_get
                0x0000000000059644                ocp_nlp_dynamics_disc_workspace_calculate_size
                0x0000000000059674                ocp_nlp_dynamics_disc_memory_calculate_size
                0x00000000000596e0                ocp_nlp_dynamics_disc_memory_assign
                0x000000000005977c                ocp_nlp_dynamics_disc_memory_get_params_grad
                0x00000000000597a8                ocp_nlp_dynamics_disc_memory_get_params_lag_grad
                0x00000000000597e0                ocp_nlp_dynamics_disc_compute_adj_p
                0x0000000000059894                ocp_nlp_dynamics_disc_opts_set
                0x0000000000059938                ocp_nlp_dynamics_disc_opts_get
                0x00000000000599b4                ocp_nlp_dynamics_disc_memory_get
                0x0000000000059a40                ocp_nlp_dynamics_disc_model_set
                0x0000000000059b48                ocp_nlp_dynamics_disc_update_qp_matrices
                0x0000000000059db0                ocp_nlp_dynamics_disc_opts_assign
                0x0000000000059db8                ocp_nlp_dynamics_disc_opts_update
                0x0000000000059dbc                ocp_nlp_dynamics_disc_memory_set_dzduxt_ptr
                0x0000000000059dc0                ocp_nlp_dynamics_disc_compute_fun
                0x0000000000059ec0                ocp_nlp_dynamics_disc_compute_fun_and_adj
 .text          0x000000000005a058     0x2c84 C:\Users\Administrator\acados_neu\buildDS1403\install\lib\libacados.a(ocp_nlp_reg_convexify.c.obj)
                0x000000000005a058                ocp_nlp_reg_convexify_opts_calculate_size
                0x000000000005a060                ocp_nlp_reg_convexify_opts_assign
                0x000000000005a064                ocp_nlp_reg_convexify_opts_initialize_default
                0x000000000005a084                ocp_nlp_reg_convexify_memory_set_RSQrq_ptr
                0x000000000005a0b8                ocp_nlp_reg_convexify_memory_set_rq_ptr
                0x000000000005a0ec                ocp_nlp_reg_convexify_memory_set_BAbt_ptr
                0x000000000005a11c                ocp_nlp_reg_convexify_memory_set_b_ptr
                0x000000000005a14c                ocp_nlp_reg_convexify_memory_set_idxb_ptr
                0x000000000005a184                ocp_nlp_reg_convexify_memory_set_DCt_ptr
                0x000000000005a1b8                ocp_nlp_reg_convexify_memory_set_ux_ptr
                0x000000000005a1ec                ocp_nlp_reg_convexify_memory_set_pi_ptr
                0x000000000005a21c                ocp_nlp_reg_convexify_memory_set_lam_ptr
                0x000000000005a250                ocp_nlp_reg_convexify_calculate_memory_size
                0x000000000005a924                ocp_nlp_reg_convexify_assign_memory
                0x000000000005b114                ocp_nlp_reg_convexify_regularize
                0x000000000005b7c8                ocp_nlp_reg_convexify_regularize_lhs
                0x000000000005bde8                ocp_nlp_reg_convexify_regularize_rhs
                0x000000000005c4d4                ocp_nlp_reg_convexify_correct_dual_sol
                0x000000000005c8fc                ocp_nlp_reg_convexify_opts_set
                0x000000000005c97c                ocp_nlp_reg_convexify_memory_set
                0x000000000005cb5c                ocp_nlp_reg_convexify_config_initialize_default
 .text          0x000000000005ccdc      0x624 C:\Users\Administrator\acados_neu\buildDS1403\install\lib\libacados.a(ocp_nlp_reg_mirror.c.obj)
                0x000000000005ccdc                ocp_nlp_reg_mirror_opts_calculate_size
                0x000000000005cce4                ocp_nlp_reg_mirror_opts_assign
                0x000000000005cce8                ocp_nlp_reg_mirror_opts_initialize_default
                0x000000000005cd00                ocp_nlp_reg_mirror_memory_calculate_size
                0x000000000005ce28                ocp_nlp_reg_mirror_memory_assign
                0x000000000005cf7c                ocp_nlp_reg_mirror_memory_set_RSQrq_ptr
                0x000000000005cfb0                ocp_nlp_reg_mirror_memory_set_lam_ptr
                0x000000000005cfb4                ocp_nlp_reg_mirror_correct_dual_sol
                0x000000000005cfb8                ocp_nlp_reg_mirror_regularize
                0x000000000005d0ac                ocp_nlp_reg_mirror_regularize_lhs
                0x000000000005d0b0                ocp_nlp_reg_mirror_opts_set
                0x000000000005d104                ocp_nlp_reg_mirror_memory_set
                0x000000000005d160                ocp_nlp_reg_mirror_regularize_rhs
                0x000000000005d164                ocp_nlp_reg_mirror_memory_set_rq_ptr
                0x000000000005d168                ocp_nlp_reg_mirror_memory_set_BAbt_ptr
                0x000000000005d16c                ocp_nlp_reg_mirror_memory_set_b_ptr
                0x000000000005d170                ocp_nlp_reg_mirror_memory_set_idxb_ptr
                0x000000000005d174                ocp_nlp_reg_mirror_memory_set_DCt_ptr
                0x000000000005d178                ocp_nlp_reg_mirror_memory_set_ux_ptr
                0x000000000005d17c                ocp_nlp_reg_mirror_memory_set_pi_ptr
                0x000000000005d180                ocp_nlp_reg_mirror_config_initialize_default
 .text          0x000000000005d300      0x214 C:\Users\Administrator\acados_neu\buildDS1403\install\lib\libacados.a(ocp_nlp_reg_noreg.c.obj)
                0x000000000005d300                ocp_nlp_reg_noreg_opts_calculate_size
                0x000000000005d308                ocp_nlp_reg_noreg_opts_assign
                0x000000000005d30c                ocp_nlp_reg_noreg_memory_calculate_size
                0x000000000005d314                ocp_nlp_reg_noreg_memory_assign
                0x000000000005d31c                ocp_nlp_reg_noreg_memory_set_lam_ptr
                0x000000000005d320                ocp_nlp_reg_noreg_correct_dual_sol
                0x000000000005d324                ocp_nlp_reg_noreg_opts_set
                0x000000000005d344                ocp_nlp_reg_noreg_memory_set
                0x000000000005d364                ocp_nlp_reg_noreg_regularize_rhs
                0x000000000005d368                ocp_nlp_reg_noreg_regularize
                0x000000000005d36c                ocp_nlp_reg_noreg_regularize_lhs
                0x000000000005d370                ocp_nlp_reg_noreg_opts_initialize_default
                0x000000000005d374                ocp_nlp_reg_noreg_memory_set_RSQrq_ptr
                0x000000000005d378                ocp_nlp_reg_noreg_memory_set_rq_ptr
                0x000000000005d37c                ocp_nlp_reg_noreg_memory_set_ux_ptr
                0x000000000005d380                ocp_nlp_reg_noreg_memory_set_pi_ptr
                0x000000000005d384                ocp_nlp_reg_noreg_memory_set_BAbt_ptr
                0x000000000005d388                ocp_nlp_reg_noreg_memory_set_b_ptr
                0x000000000005d38c                ocp_nlp_reg_noreg_memory_set_idxb_ptr
                0x000000000005d390                ocp_nlp_reg_noreg_memory_set_DCt_ptr
                0x000000000005d394                ocp_nlp_reg_noreg_config_initialize_default
 .text          0x000000000005d514      0x624 C:\Users\Administrator\acados_neu\buildDS1403\install\lib\libacados.a(ocp_nlp_reg_project.c.obj)
                0x000000000005d514                ocp_nlp_reg_project_opts_calculate_size
                0x000000000005d51c                ocp_nlp_reg_project_opts_assign
                0x000000000005d520                ocp_nlp_reg_project_opts_initialize_default
                0x000000000005d538                ocp_nlp_reg_project_memory_calculate_size
                0x000000000005d660                ocp_nlp_reg_project_memory_assign
                0x000000000005d7b4                ocp_nlp_reg_project_memory_set_RSQrq_ptr
                0x000000000005d7e8                ocp_nlp_reg_project_memory_set_lam_ptr
                0x000000000005d7ec                ocp_nlp_reg_project_correct_dual_sol
                0x000000000005d7f0                ocp_nlp_reg_project_regularize
                0x000000000005d8e4                ocp_nlp_reg_project_regularize_lhs
                0x000000000005d8e8                ocp_nlp_reg_project_opts_set
                0x000000000005d93c                ocp_nlp_reg_project_memory_set
                0x000000000005d998                ocp_nlp_reg_project_regularize_rhs
                0x000000000005d99c                ocp_nlp_reg_project_memory_set_rq_ptr
                0x000000000005d9a0                ocp_nlp_reg_project_memory_set_BAbt_ptr
                0x000000000005d9a4                ocp_nlp_reg_project_memory_set_b_ptr
                0x000000000005d9a8                ocp_nlp_reg_project_memory_set_idxb_ptr
                0x000000000005d9ac                ocp_nlp_reg_project_memory_set_DCt_ptr
                0x000000000005d9b0                ocp_nlp_reg_project_memory_set_ux_ptr
                0x000000000005d9b4                ocp_nlp_reg_project_memory_set_pi_ptr
                0x000000000005d9b8                ocp_nlp_reg_project_config_initialize_default
 .text          0x000000000005db38     0x13ec C:\Users\Administrator\acados_neu\buildDS1403\install\lib\libacados.a(ocp_nlp_reg_project_reduc_hess.c.obj)
                0x000000000005db38                ocp_nlp_reg_project_reduc_hess_opts_calculate_size
                0x000000000005db40                ocp_nlp_reg_project_reduc_hess_opts_assign
                0x000000000005db44                ocp_nlp_reg_project_reduc_hess_opts_initialize_default
                0x000000000005db8c                ocp_nlp_reg_project_reduc_hess_memory_set_RSQrq_ptr
                0x000000000005dbc0                ocp_nlp_reg_project_reduc_hess_memory_set_BAbt_ptr
                0x000000000005dbf0                ocp_nlp_reg_project_reduc_hess_memory_set_lam_ptr
                0x000000000005dbf4                ocp_nlp_reg_project_reduc_hess_correct_dual_sol
                0x000000000005dbf8                ocp_nlp_reg_project_reduc_hess_memory_calculate_size
                0x000000000005dde8                ocp_nlp_reg_project_reduc_hess_memory_assign
                0x000000000005e050                ocp_nlp_reg_project_reduc_hess_regularize
                0x000000000005ec20                ocp_nlp_reg_project_reduc_hess_regularize_lhs
                0x000000000005ec24                ocp_nlp_reg_project_reduc_hess_opts_set
                0x000000000005ecf8                ocp_nlp_reg_project_reduc_hess_memory_set
                0x000000000005ed88                ocp_nlp_reg_project_reduc_hess_regularize_rhs
                0x000000000005ed8c                ocp_nlp_reg_project_reduc_hess_memory_set_rq_ptr
                0x000000000005ed90                ocp_nlp_reg_project_reduc_hess_memory_set_b_ptr
                0x000000000005ed94                ocp_nlp_reg_project_reduc_hess_memory_set_idxb_ptr
                0x000000000005ed98                ocp_nlp_reg_project_reduc_hess_memory_set_DCt_ptr
                0x000000000005ed9c                ocp_nlp_reg_project_reduc_hess_memory_set_ux_ptr
                0x000000000005eda0                ocp_nlp_reg_project_reduc_hess_memory_set_pi_ptr
                0x000000000005eda4                ocp_nlp_reg_project_reduc_hess_config_initialize_default
 *fill*         0x000000000005ef24        0x4 
 .text          0x000000000005ef28     0x2118 C:\Users\Administrator\acados_neu\buildDS1403\install\lib\libacados.a(ocp_nlp_sqp.c.obj)
                0x000000000005ef28                ocp_nlp_sqp_memory_reset_qp_solver
                0x000000000005ef7c                ocp_nlp_sqp_config_initialize_default
                0x000000000005f0ac                ocp_nlp_sqp_opts_calculate_size
                0x000000000005f0bc                ocp_nlp_sqp_opts_assign
                0x000000000005f0ec                ocp_nlp_sqp_opts_initialize_default
                0x000000000005f1f4                ocp_nlp_sqp_opts_update
                0x000000000005f1fc                ocp_nlp_sqp_opts_set
                0x000000000005f4fc                ocp_nlp_sqp_opts_set_at_stage
                0x000000000005f504                ocp_nlp_sqp_memory_calculate_size
                0x000000000005f564                ocp_nlp_sqp_memory_assign
                0x000000000005f62c                ocp_nlp_sqp_workspace_calculate_size
                0x000000000005f67c                ocp_nlp_sqp_eval_param_sens
                0x000000000005f6f4                ocp_nlp_sqp_eval_lagr_grad_p
                0x000000000005f71c                ocp_nlp_sqp_get
                0x000000000005fdbc                ocp_nlp_sqp_opts_get
                0x000000000005fe10                ocp_nlp_sqp_work_get
                0x000000000005fe64                ocp_nlp_sqp
                0x0000000000060f58                ocp_nlp_sqp_precompute
 .text          0x0000000000061040     0x3184 C:\Users\Administrator\acados_neu\buildDS1403\install\lib\libacados.a(ocp_nlp_sqp_rti.c.obj)
                0x0000000000061040                ocp_nlp_sqp_rti_memory_reset_qp_solver
                0x000000000006109c                ocp_nlp_sqp_rti_config_initialize_default
                0x00000000000611cc                ocp_nlp_sqp_rti_opts_calculate_size
                0x00000000000611dc                ocp_nlp_sqp_rti_opts_assign
                0x000000000006120c                ocp_nlp_sqp_rti_opts_initialize_default
                0x0000000000061248                ocp_nlp_sqp_rti_opts_update
                0x0000000000061250                ocp_nlp_sqp_rti_opts_set
                0x0000000000061484                ocp_nlp_sqp_rti_opts_set_at_stage
                0x000000000006148c                ocp_nlp_sqp_rti_memory_calculate_size
                0x0000000000061504                ocp_nlp_sqp_rti_memory_assign
                0x00000000000615e0                ocp_nlp_sqp_rti_workspace_calculate_size
                0x0000000000061630                ocp_nlp_sqp_rti_eval_param_sens
                0x00000000000616a8                ocp_nlp_sqp_rti_eval_lagr_grad_p
                0x000000000006171c                ocp_nlp_sqp_rti_get
                0x0000000000061dec                ocp_nlp_sqp_rti_opts_get
                0x0000000000061e40                ocp_nlp_sqp_rti_work_get
                0x00000000000621c0                ocp_nlp_sqp_rti_precompute
                0x0000000000062830                ocp_nlp_sqp_rti
 .text          0x00000000000641c4      0x890 C:\Users\Administrator\acados_neu\buildDS1403\install\lib\libacados.a(ocp_qp_full_condensing.c.obj)
                0x00000000000641c4                ocp_qp_full_condensing_workspace_calculate_size
                0x00000000000641cc                ocp_qp_full_condensing_dims_calculate_size
                0x000000000006420c                ocp_qp_full_condensing_dims_assign
                0x0000000000064290                ocp_qp_full_condensing_dims_set
                0x0000000000064298                ocp_qp_full_condensing_opts_calculate_size
                0x00000000000642fc                ocp_qp_full_condensing_opts_assign
                0x0000000000064364                ocp_qp_full_condensing_opts_initialize_default
                0x00000000000643c4                ocp_qp_full_condensing_opts_update
                0x00000000000643d4                ocp_qp_full_condensing_memory_calculate_size
                0x0000000000064444                ocp_qp_full_condensing_memory_assign
                0x0000000000064578                ocp_qp_full_condensing
                0x00000000000645f4                ocp_qp_full_condensing_condense_lhs
                0x0000000000064658                ocp_qp_full_condensing_condense_rhs
                0x00000000000646c4                ocp_qp_full_expansion
                0x0000000000064754                ocp_qp_full_condensing_dims_get
                0x00000000000647a8                ocp_qp_full_condensing_memory_get
                0x0000000000064878                ocp_qp_full_condensing_opts_set
                0x0000000000064934                ocp_qp_full_condensing_config_initialize_default
 *fill*         0x0000000000064a54        0x4 
 .text          0x0000000000064a58      0x840 C:\Users\Administrator\acados_neu\buildDS1403\install\lib\libacados.a(ocp_qp_hpipm.c.obj)
                0x0000000000064a58                ocp_qp_hpipm_opts_update
                0x0000000000064a5c                ocp_qp_hpipm_workspace_calculate_size
                0x0000000000064a64                ocp_qp_hpipm_opts_calculate_size
                0x0000000000064aa4                ocp_qp_hpipm_opts_assign
                0x0000000000064af4                ocp_qp_hpipm_opts_initialize_default
                0x0000000000064b7c                ocp_qp_hpipm_opts_set
                0x0000000000064cdc                ocp_qp_hpipm_memory_calculate_size
                0x0000000000064d20                ocp_qp_hpipm_memory_assign
                0x0000000000064d74                ocp_qp_hpipm
                0x0000000000064ec8                ocp_qp_hpipm_memory_reset
                0x0000000000064f04                ocp_qp_hpipm_solver_get
                0x00000000000650e8                ocp_qp_hpipm_eval_sens
                0x0000000000065100                ocp_qp_hpipm_memory_get
                0x00000000000651a8                ocp_qp_hpipm_config_initialize_default
 .text          0x0000000000065298      0x9f0 C:\Users\Administrator\acados_neu\buildDS1403\install\lib\libacados.a(ocp_qp_partial_condensing.c.obj)
                0x0000000000065298                ocp_qp_partial_condensing_workspace_calculate_size
                0x00000000000652a0                ocp_qp_partial_condensing_dims_calculate_size
                0x0000000000065300                ocp_qp_partial_condensing_dims_assign
                0x00000000000653d4                ocp_qp_partial_condensing_dims_set
                0x00000000000653dc                ocp_qp_partial_condensing_opts_calculate_size
                0x0000000000065474                ocp_qp_partial_condensing_opts_assign
                0x0000000000065500                ocp_qp_partial_condensing_opts_initialize_default
                0x0000000000065560                ocp_qp_partial_condensing_opts_update
                0x0000000000065598                ocp_qp_partial_condensing_memory_calculate_size
                0x000000000006568c                ocp_qp_partial_condensing_memory_assign
                0x00000000000657e4                ocp_qp_partial_condensing
                0x000000000006584c                ocp_qp_partial_condensing_condense_lhs
                0x00000000000658b4                ocp_qp_partial_condensing_condense_rhs
                0x0000000000065924                ocp_qp_partial_expansion
                0x00000000000659a4                ocp_qp_partial_condensing_dims_get
                0x00000000000659f8                ocp_qp_partial_condensing_opts_set
                0x0000000000065a98                ocp_qp_partial_condensing_memory_get
                0x0000000000065b68                ocp_qp_partial_condensing_config_initialize_default
 .text          0x0000000000065c88     0x15cc C:\Users\Administrator\acados_neu\buildDS1403\install\lib\libacados.a(sim_erk_integrator.c.obj)
                0x0000000000065c88                sim_erk_dims_calculate_size
                0x0000000000065c90                sim_erk_dims_assign
                0x0000000000065ca8                sim_erk_model_calculate_size
                0x0000000000065cb0                sim_erk_model_assign
                0x0000000000065cb8                sim_erk_memory_calculate_size
                0x0000000000065cc0                sim_erk_memory_assign
                0x0000000000065cc8                sim_erk_config_initialize_default
                0x0000000000065e38                sim_erk_dims_set
                0x0000000000065f08                sim_erk_dims_get
                0x0000000000065f94                sim_erk_memory_set
                0x0000000000065fb4                sim_erk_opts_calculate_size
                0x0000000000065fe0                sim_erk_workspace_calculate_size
                0x00000000000660ac                sim_erk_precompute
                0x00000000000660cc                sim_erk_opts_assign
                0x0000000000066138                sim_erk_opts_set
                0x0000000000066148                sim_erk_opts_get
                0x000000000006614c                sim_erk_opts_initialize_default
                0x00000000000661ac                sim_erk_opts_update
                0x00000000000661c8                sim_erk_model_set
                0x00000000000662bc                sim_erk_memory_set_to_zero
                0x00000000000662f8                sim_erk_memory_get
                0x00000000000663ac                sim_erk
 *fill*         0x0000000000067254        0x4 
 .text          0x0000000000067258     0x80dc C:\Users\Administrator\acados_neu\buildDS1403\install\lib\libacados.a(sim_gnsf.c.obj)
                0x0000000000067258                sim_gnsf_dims_calculate_size
                0x0000000000067260                sim_gnsf_dims_assign
                0x000000000006728c                sim_gnsf_dims_set
                0x0000000000067548                sim_gnsf_dims_get
                0x0000000000067628                sim_gnsf_opts_calculate_size
                0x0000000000067668                sim_gnsf_model_calculate_size
                0x0000000000067704                sim_gnsf_opts_assign
                0x0000000000067774                sim_gnsf_opts_initialize_default
                0x000000000006781c                sim_gnsf_opts_update
                0x0000000000067858                sim_gnsf_opts_set
                0x0000000000067868                sim_gnsf_opts_get
                0x000000000006786c                sim_gnsf_model_assign
                0x0000000000067ca0                sim_gnsf_memory_assign
                0x0000000000067f68                sim_gnsf_memory_calculate_size
                0x0000000000068204                sim_gnsf_workspace_calculate_size
                0x0000000000068924                sim_gnsf_model_set
                0x0000000000068a98                sim_gnsf_memory_set_to_zero
                0x0000000000068afc                sim_gnsf_memory_get
                0x0000000000068bb4                sim_gnsf_memory_set
                0x0000000000068c74                sim_gnsf
                0x000000000006ca3c                sim_gnsf_precompute
                0x000000000006f1d4                sim_gnsf_config_initialize_default
 *fill*         0x000000000006f334        0x4 
 .text          0x000000000006f338     0x4d88 C:\Users\Administrator\acados_neu\buildDS1403\install\lib\libacados.a(sim_irk_integrator.c.obj)
                0x000000000006f338                sim_irk_dims_calculate_size
                0x000000000006f340                sim_irk_dims_assign
                0x000000000006f35c                sim_irk_model_calculate_size
                0x000000000006f364                sim_irk_model_assign
                0x000000000006f36c                sim_irk_precompute
                0x000000000006f374                sim_irk_dims_set
                0x000000000006f43c                sim_irk_dims_get
                0x000000000006f4cc                sim_irk_memory_set_to_zero
                0x000000000006f59c                sim_irk_opts_calculate_size
                0x000000000006f5dc                sim_irk_opts_assign
                0x000000000006f658                sim_irk_opts_initialize_default
                0x000000000006f704                sim_irk_opts_update
                0x000000000006f740                sim_irk_opts_set
                0x000000000006f750                sim_irk_opts_get
                0x000000000006f754                sim_irk_memory_calculate_size
                0x000000000006f7bc                sim_irk_memory_assign
                0x000000000006f89c                sim_irk_memory_set
                0x000000000006fb40                sim_irk_workspace_calculate_size
                0x000000000006ff70                sim_irk_model_set
                0x00000000000701b4                sim_irk_memory_get
                0x0000000000070298                sim_irk
                0x0000000000073f60                sim_irk_config_initialize_default
 .text          0x00000000000740c0     0x19c8 C:\Users\Administrator\acados_neu\buildDS1403\install\lib\libacados.a(sim_lifted_irk_integrator.c.obj)
                0x00000000000740c0                sim_lifted_irk_dims_calculate_size
                0x00000000000740c8                sim_lifted_irk_dims_assign
                0x00000000000740e0                sim_lifted_irk_model_calculate_size
                0x00000000000740e8                sim_lifted_irk_model_assign
                0x00000000000740f0                sim_lifted_irk_precompute
                0x00000000000740f8                sim_lifted_irk_dims_set
                0x00000000000741a0                sim_lifted_irk_dims_get
                0x0000000000074230                sim_lifted_irk_memory_set
                0x0000000000074250                sim_lifted_irk_opts_calculate_size
                0x0000000000074290                sim_lifted_irk_opts_assign
                0x000000000007430c                sim_lifted_irk_opts_initialize_default
                0x00000000000743a0                sim_lifted_irk_opts_update
                0x00000000000743dc                sim_lifted_irk_opts_set
                0x00000000000743ec                sim_lifted_irk_opts_get
                0x00000000000743f0                sim_lifted_irk_memory_calculate_size
                0x00000000000744d8                sim_lifted_irk_workspace_calculate_size
                0x0000000000074588                sim_lifted_irk_memory_assign
                0x0000000000074788                sim_lifted_irk_model_set
                0x000000000007483c                sim_lifted_irk_memory_get
                0x00000000000748f4                sim_lifted_irk_memory_set_to_zero
                0x00000000000749bc                sim_lifted_irk
                0x0000000000075928                sim_lifted_irk_config_initialize_default
 .text          0x0000000000075a88     0x2fd4 C:\Users\Administrator\acados_neu\buildDS1403\install\lib\libacados.a(external_function_generic.c.obj)
                0x0000000000075ac0                external_function_param_generic_wrapper
                0x0000000000075ae4                external_function_param_generic_get_nparam
                0x0000000000075af0                external_function_param_generic_set_param
                0x0000000000075fc8                external_function_param_casadi_get_nparam
                0x0000000000076418                external_function_casadi_wrapper
                0x0000000000076a28                external_function_param_casadi_wrapper
                0x0000000000076fc8                external_function_param_generic_struct_size
                0x0000000000076fd0                external_function_param_generic_set_fun
                0x0000000000076fd8                external_function_param_generic_calculate_size
                0x0000000000077058                external_function_param_generic_assign
                0x0000000000077094                external_function_casadi_struct_size
                0x000000000007709c                external_function_casadi_set_fun
                0x00000000000770a4                external_function_casadi_set_work
                0x00000000000770ac                external_function_casadi_set_sparsity_in
                0x00000000000770b4                external_function_casadi_set_sparsity_out
                0x00000000000770bc                external_function_casadi_set_n_in
                0x00000000000770c4                external_function_casadi_set_n_out
                0x00000000000770cc                external_function_casadi_calculate_size
                0x000000000007761c                external_function_casadi_assign
                0x0000000000077d5c                external_function_param_casadi_struct_size
                0x0000000000077d64                external_function_param_casadi_set_fun
                0x0000000000077d6c                external_function_param_casadi_set_work
                0x0000000000077d74                external_function_param_casadi_set_sparsity_in
                0x0000000000077d7c                external_function_param_casadi_set_sparsity_out
                0x0000000000077d84                external_function_param_casadi_set_n_in
                0x0000000000077d8c                external_function_param_casadi_set_n_out
                0x0000000000077d94                external_function_param_casadi_calculate_size
                0x000000000007831c                external_function_param_casadi_assign
 *fill*         0x0000000000078a5c        0x4 
 .text          0x0000000000078a60      0x360 C:\Users\Administrator\acados_neu\buildDS1403\install\lib\libacados.a(print.c.obj)
                0x0000000000078a60                read_matrix
                0x0000000000078b2c                ocp_nlp_dims_print
                0x0000000000078bac                print_ocp_qp_dims
                0x0000000000078c50                print_ocp_qp_in
                0x0000000000078c54                print_ocp_qp_out
                0x0000000000078c58                print_ocp_qp_out_to_file
                0x0000000000078c5c                ocp_nlp_out_print
                0x0000000000078c60                ocp_nlp_res_print
                0x0000000000078c64                print_ocp_qp_res
                0x0000000000078c68                print_ocp_qp_in_to_file
                0x0000000000078c6c                print_dense_qp_in
                0x0000000000078c70                print_qp_info
 .text          0x0000000000078dc0      0x724 C:\Users\Administrator\acados_neu\buildDS1403\install\lib\libacados.a(sim_interface.c.obj)
                0x0000000000078dc0                sim_config_create
                0x0000000000078e60                sim_config_destroy
                0x0000000000078e64                sim_dims_create
                0x0000000000078e94                sim_dims_destroy
                0x0000000000078e98                sim_dims_set
                0x0000000000078ea0                sim_dims_get
                0x0000000000078ea8                sim_dims_get_from_attr
                0x0000000000079288                sim_in_create
                0x00000000000792b8                sim_in_destroy
                0x00000000000792bc                sim_in_set
                0x00000000000792c0                sim_out_create
                0x00000000000792f0                sim_out_destroy
                0x00000000000792f4                sim_out_get
                0x00000000000792f8                sim_opts_create
                0x000000000007934c                sim_opts_destroy
                0x0000000000079350                sim_opts_set
                0x0000000000079358                sim_opts_get
                0x000000000007935c                sim_calculate_size
                0x0000000000079398                sim_assign
                0x00000000000793fc                sim_solver_create
                0x0000000000079448                sim_solver_destroy
                0x000000000007944c                sim_solve
                0x000000000007947c                sim_precompute
                0x00000000000794ac                sim_solver_set
 *fill*         0x00000000000794e4        0x4 
 .text          0x00000000000794e8     0x1080 C:\Users\Administrator\acados_neu\buildDS1403\install\lib\libacados.a(dense_qp_common.c.obj)
                0x00000000000794e8                dense_qp_solver_config_calculate_size
                0x00000000000794f0                dense_qp_solver_config_assign
                0x00000000000794f4                dense_qp_dims_calculate_size
                0x0000000000079504                dense_qp_dims_assign
                0x0000000000079520                dense_qp_dims_set
                0x0000000000079530                dense_qp_in_calculate_size
                0x000000000007956c                dense_qp_in_assign
                0x00000000000795f8                dense_qp_out_calculate_size
                0x0000000000079634                dense_qp_out_assign
                0x0000000000079688                dense_qp_out_get
                0x00000000000796dc                dense_qp_res_calculate_size
                0x0000000000079714                dense_qp_res_assign
                0x000000000007975c                dense_qp_res_workspace_calculate_size
                0x0000000000079794                dense_qp_res_workspace_assign
                0x00000000000797dc                dense_qp_compute_t
                0x00000000000799f8                dense_qp_res_compute
                0x0000000000079a40                dense_qp_res_compute_nrm_inf
                0x0000000000079ac0                dense_qp_stack_slacks_dims
                0x0000000000079b1c                dense_qp_stack_slacks
                0x000000000007a1d8                dense_qp_unstack_slacks
 .text          0x000000000007a568     0x11cc C:\Users\Administrator\acados_neu\buildDS1403\install\lib\libacados.a(sim_collocation_utils.c.obj)
                0x000000000007a568                butcher_tableau_work_calculate_size
                0x000000000007a5b0                calculate_butcher_tableau_from_nodes
                0x000000000007acf0                get_explicit_butcher_tableau
                0x000000000007af30                calculate_butcher_tableau
 *fill*         0x000000000007b734        0x4 
 .text          0x000000000007b738     0x7f7c C:\Users\Administrator\acados_neu\buildDS1403\install\lib\libblasfeo.a(d_aux_lib4.c.obj)
                0x000000000007b738                dgead_lib
                0x000000000007be88                dgetr_lib
                0x000000000007c0b8                dtrtr_l_lib
                0x000000000007c394                dtrtr_u_lib
                0x000000000007cbc4                ddiareg_lib
                0x000000000007ccdc                ddiain_sqrt_lib
                0x000000000007ceb4                ddiaex_lib
                0x000000000007cfdc                ddiaad_lib
                0x000000000007d124                ddiain_libsp
                0x000000000007d18c                ddiaex_libsp
                0x000000000007d1f4                ddiaad_libsp
                0x000000000007d25c                ddiaadin_libsp
                0x000000000007d2cc                drowin_lib
                0x000000000007d370                drowex_lib
                0x000000000007d414                drowad_lib
                0x000000000007d4d4                drowin_libsp
                0x000000000007d504                drowad_libsp
                0x000000000007d538                drowadin_libsp
                0x000000000007d574                dcolex_lib
                0x000000000007d688                dcolin_lib
                0x000000000007d79c                dcolad_lib
                0x000000000007d8d4                dcolin_libsp
                0x000000000007d930                dcolad_libsp
                0x000000000007d994                dcolsw_lib
                0x000000000007db30                dvecin_libsp
                0x000000000007db64                dvecad_libsp
                0x000000000007db98                blasfeo_memsize_dmat
                0x000000000007dbe4                blasfeo_memsize_diag_dmat
                0x000000000007dc1c                blasfeo_create_dmat
                0x000000000007dca0                blasfeo_memsize_dvec
                0x000000000007dcb8                blasfeo_create_dvec
                0x000000000007dce4                blasfeo_pack_dmat
                0x000000000007e370                blasfeo_pack_l_dmat
                0x000000000007e9b0                blasfeo_pack_u_dmat
                0x000000000007f060                blasfeo_pack_tran_dmat
                0x000000000007f498                blasfeo_pack_dvec
                0x000000000007f500                blasfeo_unpack_dmat
                0x000000000007f9a0                blasfeo_unpack_tran_dmat
                0x000000000007fea8                blasfeo_unpack_dvec
                0x000000000007ff10                blasfeo_dgein1
                0x000000000007ff64                blasfeo_dgeex1
                0x000000000007ffac                blasfeo_dvecin1
                0x000000000007ffbc                blasfeo_dvecex1
                0x000000000007ffcc                blasfeo_dgese
                0x0000000000080120                blasfeo_dvecse
                0x000000000008014c                blasfeo_ddiain
                0x00000000000802c0                blasfeo_ddiare
                0x0000000000080418                blasfeo_drowsw
                0x00000000000804b0                blasfeo_drowpe
                0x0000000000080514                blasfeo_drowpei
                0x000000000008056c                blasfeo_drowex
                0x00000000000805c0                blasfeo_drowin
                0x000000000008061c                blasfeo_drowad
                0x0000000000080678                blasfeo_dcolex
                0x00000000000806e0                blasfeo_dcolin
                0x0000000000080744                blasfeo_dcolad
                0x00000000000807a8                blasfeo_dcolsc
                0x00000000000808ec                blasfeo_dcolsw
                0x00000000000809ac                blasfeo_dcolpe
                0x0000000000080a10                blasfeo_dcolpei
                0x0000000000080a68                blasfeo_dgecp
                0x0000000000081284                blasfeo_dtrcp_l
                0x00000000000818cc                blasfeo_dgecpsc
                0x00000000000820e8                blasfeo_dtrcpsc_l
                0x0000000000082714                blasfeo_dgesc
                0x0000000000082744                blasfeo_dtrsc_l
                0x0000000000082768                blasfeo_dveccp
                0x0000000000082780                blasfeo_dvecsc
                0x0000000000082824                blasfeo_dveccpsc
                0x00000000000828dc                blasfeo_dgead
                0x0000000000082984                blasfeo_dvecad
                0x0000000000082a58                blasfeo_dgetr
                0x0000000000082b04                blasfeo_dtrtr_l
                0x0000000000082ba8                blasfeo_dtrtr_u
                0x0000000000082c4c                blasfeo_ddiain_sp
                0x0000000000082cdc                blasfeo_ddiaex
                0x0000000000082e48                blasfeo_ddiaex_sp
                0x0000000000082ed0                blasfeo_ddiaad
                0x0000000000083064                blasfeo_ddiaad_sp
                0x00000000000830f4                blasfeo_ddiaadin_sp
                0x000000000008319c                blasfeo_drowad_sp
                0x0000000000083200                blasfeo_dvecad_sp
                0x0000000000083254                blasfeo_dvecin_sp
                0x00000000000832a4                blasfeo_dvecex_sp
                0x00000000000832f4                blasfeo_dvecexad_sp
                0x0000000000083348                blasfeo_dveccl
                0x00000000000833d8                blasfeo_dveccl_mask
                0x00000000000834b0                blasfeo_dvecze
                0x0000000000083520                blasfeo_dvecnrm_inf
                0x0000000000083598                blasfeo_dvecnrm_2
                0x0000000000083618                blasfeo_dvecpe
                0x0000000000083668                blasfeo_dvecpei
 *fill*         0x00000000000836b4        0x4 
 .text          0x00000000000836b8      0x88c C:\Users\Administrator\acados_neu\buildDS1403\install\lib\libblasfeo.a(d_blas1_lib4.c.obj)
                0x00000000000836b8                blasfeo_hp_daxpy
                0x00000000000837ac                blasfeo_hp_daxpby
                0x00000000000838b4                blasfeo_hp_dvecmul
                0x0000000000083908                blasfeo_hp_dvecmulacc
                0x0000000000083960                blasfeo_hp_dvecmuldot
                0x00000000000839c8                blasfeo_hp_ddot
                0x0000000000083aa8                blasfeo_hp_drotg
                0x0000000000083b6c                blasfeo_hp_dcolrot
                0x0000000000083d74                blasfeo_hp_drowrot
                0x0000000000083ef8                blasfeo_daxpy
                0x0000000000083f04                blasfeo_daxpby
                0x0000000000083f10                blasfeo_dvecmul
                0x0000000000083f1c                blasfeo_dvecmulacc
                0x0000000000083f28                blasfeo_dvecmuldot
                0x0000000000083f34                blasfeo_ddot
                0x0000000000083f38                blasfeo_drotg
                0x0000000000083f3c                blasfeo_dcolrot
                0x0000000000083f40                blasfeo_drowrot
 *fill*         0x0000000000083f44        0x4 
 .text          0x0000000000083f48     0x34b0 C:\Users\Administrator\acados_neu\buildDS1403\install\lib\libblasfeo.a(d_blas2_lib4.c.obj)
                0x0000000000083f48                blasfeo_hp_dgemv_n
                0x000000000008416c                blasfeo_hp_dgemv_t
                0x0000000000084318                blasfeo_hp_dgemv_nt
                0x00000000000846b8                blasfeo_hp_dsymv_l
                0x00000000000849ec                blasfeo_hp_dsymv_l_mn
                0x0000000000084d20                blasfeo_hp_dsymv_u
                0x0000000000084d40                blasfeo_hp_dtrmv_lnn
                0x00000000000851e4                blasfeo_hp_dtrmv_lnu
                0x00000000000855e4                blasfeo_hp_dtrmv_ltn
                0x0000000000085bd4                blasfeo_hp_dtrmv_ltu
                0x0000000000086154                blasfeo_hp_dtrmv_unn
                0x00000000000862f4                blasfeo_hp_dtrmv_utn
                0x00000000000863c4                blasfeo_hp_dtrsv_lnn_mn
                0x000000000008672c                blasfeo_hp_dtrsv_lnn
                0x000000000008677c                blasfeo_hp_dtrsv_lnu
                0x00000000000868b0                blasfeo_hp_dtrsv_ltn_mn
                0x0000000000086ba8                blasfeo_hp_dtrsv_ltn
                0x0000000000086bf8                blasfeo_hp_dtrsv_ltu
                0x0000000000086dd8                blasfeo_hp_dtrsv_unn
                0x00000000000870e8                blasfeo_hp_dtrsv_utn
                0x00000000000872f0                blasfeo_hp_dger
                0x00000000000872fc                blasfeo_dgemv_n
                0x0000000000087308                blasfeo_dgemv_t
                0x0000000000087314                blasfeo_dgemv_nt
                0x0000000000087320                blasfeo_dsymv_l
                0x000000000008732c                blasfeo_dsymv_l_mn
                0x0000000000087338                blasfeo_dsymv_u
                0x0000000000087344                blasfeo_dtrmv_lnn
                0x0000000000087350                blasfeo_dtrmv_lnu
                0x000000000008735c                blasfeo_dtrmv_ltn
                0x0000000000087368                blasfeo_dtrmv_ltu
                0x0000000000087374                blasfeo_dtrmv_unn
                0x0000000000087380                blasfeo_dtrmv_utn
                0x000000000008738c                blasfeo_dtrsv_lnn_mn
                0x0000000000087398                blasfeo_dtrsv_lnn
                0x00000000000873a4                blasfeo_dtrsv_lnu
                0x00000000000873b0                blasfeo_dtrsv_ltn_mn
                0x00000000000873bc                blasfeo_dtrsv_ltn
                0x00000000000873c8                blasfeo_dtrsv_ltu
                0x00000000000873d4                blasfeo_dtrsv_unn
                0x00000000000873e0                blasfeo_dtrsv_utn
                0x00000000000873ec                blasfeo_dger
 .text          0x00000000000873f8      0x688 C:\Users\Administrator\acados_neu\buildDS1403\install\lib\libblasfeo.a(d_blas3_diag_lib4.c.obj)
                0x00000000000873f8                blasfeo_hp_dgemm_dn
                0x000000000008774c                blasfeo_hp_dgemm_nd
                0x0000000000087a68                blasfeo_dgemm_dn
                0x0000000000087a74                blasfeo_dgemm_nd
 .text          0x0000000000087a80     0x6f94 C:\Users\Administrator\acados_neu\buildDS1403\install\lib\libblasfeo.a(d_blas3_lib4.c.obj)
                0x0000000000087a80                blasfeo_hp_dgemm_nn
                0x00000000000880fc                blasfeo_hp_dgemm_nt
                0x0000000000088bb4                blasfeo_hp_dgemm_tn
                0x000000000008944c                blasfeo_hp_dgemm_tt
                0x0000000000089b28                blasfeo_hp_dtrsm_llnn
                0x0000000000089f88                blasfeo_hp_dtrsm_llnu
                0x000000000008a304                blasfeo_hp_dtrsm_lltn
                0x000000000008a310                blasfeo_hp_dtrsm_lltu
                0x000000000008a31c                blasfeo_hp_dtrsm_lunn
                0x000000000008a7b8                blasfeo_hp_dtrsm_lunu
                0x000000000008ab58                blasfeo_hp_dtrsm_lutn
                0x000000000008ab64                blasfeo_hp_dtrsm_lutu
                0x000000000008ab70                blasfeo_hp_dtrsm_rlnn
                0x000000000008ab7c                blasfeo_hp_dtrsm_rlnu
                0x000000000008ab88                blasfeo_hp_dtrsm_rltn
                0x000000000008b060                blasfeo_hp_dtrsm_rltu
                0x000000000008b3c8                blasfeo_hp_dtrsm_runn
                0x000000000008b3d4                blasfeo_hp_dtrsm_runu
                0x000000000008b3e0                blasfeo_hp_dtrsm_rutn
                0x000000000008b954                blasfeo_hp_dtrsm_rutu
                0x000000000008b960                blasfeo_hp_dtrmm_llnn
                0x000000000008b96c                blasfeo_hp_dtrmm_llnu
                0x000000000008b978                blasfeo_hp_dtrmm_lltn
                0x000000000008b984                blasfeo_hp_dtrmm_lltu
                0x000000000008b990                blasfeo_hp_dtrmm_lunn
                0x000000000008b99c                blasfeo_hp_dtrmm_lunu
                0x000000000008b9a8                blasfeo_hp_dtrmm_lutn
                0x000000000008b9b4                blasfeo_hp_dtrmm_lutu
                0x000000000008b9c0                blasfeo_hp_dtrmm_rlnn
                0x000000000008bf58                blasfeo_hp_dtrmm_rlnu
                0x000000000008bf64                blasfeo_hp_dtrmm_rltn
                0x000000000008bf70                blasfeo_hp_dtrmm_rltu
                0x000000000008bf7c                blasfeo_hp_dtrmm_runn
                0x000000000008bf88                blasfeo_hp_dtrmm_runu
                0x000000000008bf94                blasfeo_hp_dtrmm_rutn
                0x000000000008c258                blasfeo_hp_dtrmm_rutu
                0x000000000008c264                blasfeo_hp_dsyrk_ln
                0x000000000008d7bc                blasfeo_hp_dsyrk_ln_mn
                0x000000000008df10                blasfeo_hp_dsyrk_lt
                0x000000000008df1c                blasfeo_hp_dsyrk_un
                0x000000000008df28                blasfeo_hp_dsyrk_ut
                0x000000000008e518                blasfeo_hp_dsyr2k_ln
                0x000000000008e5d0                blasfeo_hp_dsyr2k_lt
                0x000000000008e688                blasfeo_hp_dsyr2k_un
                0x000000000008e740                blasfeo_hp_dsyr2k_ut
                0x000000000008e7f8                blasfeo_dgemm_nn
                0x000000000008e804                blasfeo_dgemm_nt
                0x000000000008e810                blasfeo_dgemm_tn
                0x000000000008e81c                blasfeo_dgemm_tt
                0x000000000008e828                blasfeo_dtrsm_llnn
                0x000000000008e834                blasfeo_dtrsm_llnu
                0x000000000008e840                blasfeo_dtrsm_lltn
                0x000000000008e84c                blasfeo_dtrsm_lltu
                0x000000000008e858                blasfeo_dtrsm_lunn
                0x000000000008e864                blasfeo_dtrsm_lunu
                0x000000000008e870                blasfeo_dtrsm_lutn
                0x000000000008e87c                blasfeo_dtrsm_lutu
                0x000000000008e888                blasfeo_dtrsm_rlnn
                0x000000000008e894                blasfeo_dtrsm_rlnu
                0x000000000008e8a0                blasfeo_dtrsm_rltn
                0x000000000008e8ac                blasfeo_dtrsm_rltu
                0x000000000008e8b8                blasfeo_dtrsm_runn
                0x000000000008e8c4                blasfeo_dtrsm_runu
                0x000000000008e8d0                blasfeo_dtrsm_rutn
                0x000000000008e8dc                blasfeo_dtrsm_rutu
                0x000000000008e8e8                blasfeo_dtrmm_llnn
                0x000000000008e8f4                blasfeo_dtrmm_llnu
                0x000000000008e900                blasfeo_dtrmm_lltn
                0x000000000008e90c                blasfeo_dtrmm_lltu
                0x000000000008e918                blasfeo_dtrmm_lunn
                0x000000000008e924                blasfeo_dtrmm_lunu
                0x000000000008e930                blasfeo_dtrmm_lutn
                0x000000000008e93c                blasfeo_dtrmm_lutu
                0x000000000008e948                blasfeo_dtrmm_rlnn
                0x000000000008e954                blasfeo_dtrmm_rlnu
                0x000000000008e960                blasfeo_dtrmm_rltn
                0x000000000008e96c                blasfeo_dtrmm_rltu
                0x000000000008e978                blasfeo_dtrmm_runn
                0x000000000008e984                blasfeo_dtrmm_runu
                0x000000000008e990                blasfeo_dtrmm_rutn
                0x000000000008e99c                blasfeo_dtrmm_rutu
                0x000000000008e9a8                blasfeo_dsyrk_ln
                0x000000000008e9b4                blasfeo_dsyrk_ln_mn
                0x000000000008e9c0                blasfeo_dsyrk_lt
                0x000000000008e9cc                blasfeo_dsyrk_un
                0x000000000008e9d8                blasfeo_dsyrk_ut
                0x000000000008e9e4                blasfeo_dsyr2k_ln
                0x000000000008e9f0                blasfeo_dsyr2k_lt
                0x000000000008e9fc                blasfeo_dsyr2k_un
                0x000000000008ea08                blasfeo_dsyr2k_ut
 *fill*         0x000000000008ea14        0x4 
 .text          0x000000000008ea18     0x4a1c C:\Users\Administrator\acados_neu\buildDS1403\install\lib\libblasfeo.a(d_lapack_lib4.c.obj)
                0x000000000008fcf4                blasfeo_hp_dpotrf_l
                0x00000000000901a4                blasfeo_hp_dpotrf_l_mn
                0x0000000000090650                blasfeo_hp_dpotrf_u
                0x000000000009066c                blasfeo_hp_dsyrk_dpotrf_ln_mn
                0x0000000000090ca8                blasfeo_hp_dsyrk_dpotrf_ln
                0x0000000000091300                blasfeo_hp_dgetrf_np
                0x0000000000091a5c                blasfeo_hp_dgetrf_rp
                0x0000000000092b08                blasfeo_hp_dgeqrf_worksize
                0x0000000000092b34                blasfeo_hp_dgeqrf
                0x0000000000092e08                blasfeo_hp_dgelqf_worksize
                0x0000000000092e10                blasfeo_hp_dgelqf
                0x0000000000092e34                blasfeo_hp_dorglq_worksize
                0x0000000000092e3c                blasfeo_hp_dorglq
                0x0000000000092e8c                blasfeo_hp_dgelqf_pd
                0x0000000000092eb0                blasfeo_hp_dgelqf_pd_la
                0x0000000000093328                blasfeo_hp_dgelqf_pd_lla
                0x0000000000093384                blasfeo_dpotrf_l
                0x0000000000093390                blasfeo_dpotrf_l_mn
                0x000000000009339c                blasfeo_dpotrf_u
                0x00000000000933a8                blasfeo_dsyrk_dpotrf_ln_mn
                0x00000000000933b4                blasfeo_dsyrk_dpotrf_ln
                0x00000000000933c0                blasfeo_dgetrf_np
                0x00000000000933cc                blasfeo_dgetrf_rp
                0x00000000000933d8                blasfeo_dgeqrf_worksize
                0x00000000000933dc                blasfeo_dgeqrf
                0x00000000000933e8                blasfeo_dgelqf_worksize
                0x00000000000933ec                blasfeo_dgelqf
                0x00000000000933f8                blasfeo_dorglq_worksize
                0x00000000000933fc                blasfeo_dorglq
                0x0000000000093408                blasfeo_dgelqf_pd
                0x000000000009341c                blasfeo_dgelqf_pd_la
                0x0000000000093428                blasfeo_dgelqf_pd_lla
 *fill*         0x0000000000093434        0x4 
 .text          0x0000000000093438     0x2760 C:\Users\Administrator\acados_neu\buildDS1403\install\lib\libblasfeo.a(d_aux_ref.c.obj)
                0x0000000000093438                blasfeo_ref_memsize_dmat
                0x0000000000093484                blasfeo_ref_memsize_diag_dmat
                0x00000000000934bc                blasfeo_ref_memsize_dvec
                0x00000000000934d4                blasfeo_ref_create_dmat
                0x0000000000093558                blasfeo_ref_create_dvec
                0x0000000000093584                blasfeo_ref_pack_dmat
                0x00000000000936f0                blasfeo_ref_pack_l_dmat
                0x000000000009378c                blasfeo_ref_pack_u_dmat
                0x0000000000093824                blasfeo_ref_pack_tran_dmat
                0x0000000000093944                blasfeo_ref_pack_dvec
                0x00000000000939ac                blasfeo_ref_unpack_dmat
                0x0000000000093b10                blasfeo_ref_unpack_tran_dmat
                0x0000000000093cd0                blasfeo_ref_unpack_dvec
                0x0000000000093d38                blasfeo_ref_dgecp
                0x0000000000093f54                blasfeo_ref_dgesc
                0x0000000000094098                blasfeo_ref_dgecpsc
                0x00000000000942c8                blasfeo_ref_dgead
                0x0000000000094530                blasfeo_ref_dgese
                0x0000000000094688                blasfeo_ref_dgetr
                0x0000000000094838                blasfeo_ref_dgein1
                0x000000000009486c                blasfeo_ref_dgeex1
                0x0000000000094894                blasfeo_ref_dtrcp_l
                0x0000000000094930                blasfeo_ref_dtrtr_l
                0x00000000000949d0                blasfeo_ref_dtrtr_u
                0x0000000000094a84                blasfeo_ref_dvecse
                0x0000000000094ab0                blasfeo_ref_dveccp
                0x0000000000094b68                blasfeo_ref_dvecsc
                0x0000000000094c0c                blasfeo_ref_dveccpsc
                0x0000000000094cc4                blasfeo_ref_dvecad
                0x0000000000094d98                blasfeo_ref_dvecad_sp
                0x0000000000094dec                blasfeo_ref_dvecin_sp
                0x0000000000094e3c                blasfeo_ref_dvecex_sp
                0x0000000000094e8c                blasfeo_ref_dvecexad_sp
                0x0000000000094ee0                blasfeo_ref_dvecin1
                0x0000000000094ef0                blasfeo_ref_dvecex1
                0x0000000000094f00                blasfeo_ref_dvecpe
                0x0000000000094f50                blasfeo_ref_dvecpei
                0x0000000000094f9c                blasfeo_ref_dveccl
                0x000000000009502c                blasfeo_ref_dveccl_mask
                0x0000000000095100                blasfeo_ref_dvecze
                0x0000000000095170                blasfeo_ref_dvecnrm_inf
                0x00000000000951c0                blasfeo_ref_dvecnrm_2
                0x0000000000095240                blasfeo_ref_ddiain
                0x00000000000952ac                blasfeo_ref_ddiain_sp
                0x0000000000095320                blasfeo_ref_ddiaex
                0x0000000000095384                blasfeo_ref_ddiaex_sp
                0x00000000000953f0                blasfeo_ref_ddiaad
                0x0000000000095460                blasfeo_ref_ddiaad_sp
                0x00000000000954d8                blasfeo_ref_ddiaadin_sp
                0x0000000000095564                blasfeo_ref_ddiare
                0x00000000000955bc                blasfeo_ref_drowex
                0x0000000000095620                blasfeo_ref_drowin
                0x000000000009568c                blasfeo_ref_drowad
                0x00000000000956fc                blasfeo_ref_drowad_sp
                0x0000000000095770                blasfeo_ref_drowsw
                0x000000000009580c                blasfeo_ref_drowpe
                0x0000000000095870                blasfeo_ref_drowpei
                0x00000000000958c8                blasfeo_ref_dcolex
                0x0000000000095924                blasfeo_ref_dcolin
                0x0000000000095988                blasfeo_ref_dcolad
                0x00000000000959f4                blasfeo_ref_dcolsc
                0x0000000000095a48                blasfeo_ref_dcolsw
                0x0000000000095adc                blasfeo_ref_dcolpe
                0x0000000000095b40                blasfeo_ref_dcolpei
 .text          0x0000000000095b98     0x38e8 C:\Users\Administrator\acados_neu\buildDS1403\install\lib\libblasfeo.a(d_blas2_ref.c.obj)
                0x0000000000095b98                blasfeo_ref_dgemv_n
                0x0000000000095ec0                blasfeo_ref_dgemv_t
                0x00000000000961d0                blasfeo_ref_dgemv_nt
                0x00000000000963f0                blasfeo_ref_dsymv_l
                0x00000000000969a4                blasfeo_ref_dsymv_l_mn
                0x0000000000096c20                blasfeo_ref_dsymv_u
                0x0000000000096db0                blasfeo_ref_dtrmv_lnn
                0x0000000000096fb4                blasfeo_ref_dtrmv_ltn
                0x00000000000972b8                blasfeo_ref_dtrmv_unn
                0x000000000009758c                blasfeo_ref_dtrmv_utn
                0x00000000000977d0                blasfeo_ref_dtrsv_lnn_mn
                0x0000000000097d54                blasfeo_ref_dtrsv_ltn_mn
                0x00000000000980e8                blasfeo_ref_dtrsv_lnn
                0x0000000000098410                blasfeo_ref_dtrsv_lnu
                0x000000000009863c                blasfeo_ref_dtrsv_ltn
                0x000000000009894c                blasfeo_ref_dtrsv_ltu
                0x0000000000098b6c                blasfeo_ref_dtrsv_unn
                0x0000000000098eb8                blasfeo_ref_dtrsv_utn
                0x000000000009922c                blasfeo_ref_dger
 .text          0x0000000000099480      0xb3c C:\Users\Administrator\acados_neu\buildDS1403\install\lib\libblasfeo.a(d_blas3_diag_ref.c.obj)
                0x0000000000099480                blasfeo_ref_dgemm_dn
                0x0000000000099ab8                blasfeo_ref_dgemm_nd
 *fill*         0x0000000000099fbc        0x4 
 .text          0x0000000000099fc0    0x17804 C:\Users\Administrator\acados_neu\buildDS1403\install\lib\libblasfeo.a(d_blas3_ref.c.obj)
                0x0000000000099fc0                blasfeo_ref_dgemm_nn
                0x000000000009a87c                blasfeo_ref_dgemm_nt
                0x000000000009b210                blasfeo_ref_dgemm_tn
                0x000000000009bac8                blasfeo_ref_dgemm_tt
                0x000000000009c3b4                blasfeo_ref_dtrsm_llnn
                0x000000000009cd38                blasfeo_ref_dtrsm_llnu
                0x000000000009d52c                blasfeo_ref_dtrsm_lltn
                0x000000000009df74                blasfeo_ref_dtrsm_lltu
                0x000000000009e7f4                blasfeo_ref_dtrsm_lunn
                0x000000000009f2bc                blasfeo_ref_dtrsm_lunu
                0x000000000009fb7c                blasfeo_ref_dtrsm_lutn
                0x00000000000a04fc                blasfeo_ref_dtrsm_lutu
                0x00000000000a0ccc                blasfeo_ref_dtrsm_rlnn
                0x00000000000a17ac                blasfeo_ref_dtrsm_rlnu
                0x00000000000a2110                blasfeo_ref_dtrsm_rltn
                0x00000000000a2980                blasfeo_ref_dtrsm_rltu
                0x00000000000a3080                blasfeo_ref_dtrsm_runn
                0x00000000000a385c                blasfeo_ref_dtrsm_runu
                0x00000000000a3ee4                blasfeo_ref_dtrsm_rutn
                0x00000000000a4a84                blasfeo_ref_dtrsm_rutu
                0x00000000000a54b8                blasfeo_ref_dtrmm_llnn
                0x00000000000a5df0                blasfeo_ref_dtrmm_llnu
                0x00000000000a6660                blasfeo_ref_dtrmm_lltn
                0x00000000000a6fac                blasfeo_ref_dtrmm_lltu
                0x00000000000a7804                blasfeo_ref_dtrmm_lunn
                0x00000000000a80a4                blasfeo_ref_dtrmm_lunu
                0x00000000000a88e0                blasfeo_ref_dtrmm_lutn
                0x00000000000a91c8                blasfeo_ref_dtrmm_lutu
                0x00000000000a9a18                blasfeo_ref_dtrmm_rlnn
                0x00000000000aa330                blasfeo_ref_dtrmm_rlnu
                0x00000000000aab4c                blasfeo_ref_dtrmm_rltn
                0x00000000000ab5f4                blasfeo_ref_dtrmm_rltu
                0x00000000000abffc                blasfeo_ref_dtrmm_runn
                0x00000000000ac9f4                blasfeo_ref_dtrmm_runu
                0x00000000000ad2fc                blasfeo_ref_dtrmm_rutn
                0x00000000000adce8                blasfeo_ref_dtrmm_rutu
                0x00000000000ae61c                blasfeo_ref_dsyrk_ln
                0x00000000000aeeec                blasfeo_ref_dsyrk_ln_mn
                0x00000000000afb78                blasfeo_ref_dsyrk_lt
                0x00000000000b03c8                blasfeo_ref_dsyrk_un
                0x00000000000b0cc0                blasfeo_ref_dsyrk_ut
                0x00000000000b14e4                blasfeo_ref_dsyr2k_ln
                0x00000000000b159c                blasfeo_ref_dsyr2k_lt
                0x00000000000b1654                blasfeo_ref_dsyr2k_un
                0x00000000000b170c                blasfeo_ref_dsyr2k_ut
 *fill*         0x00000000000b17c4        0x4 
 .text          0x00000000000b17c8     0xbf9c C:\Users\Administrator\acados_neu\buildDS1403\install\lib\libblasfeo.a(d_lapack_ref.c.obj)
                0x00000000000b17c8                blasfeo_ref_dpotrf_l
                0x00000000000b208c                blasfeo_ref_dpotrf_l_mn
                0x00000000000b2a9c                blasfeo_ref_dpotrf_u
                0x00000000000b2ce8                blasfeo_ref_dsyrk_dpotrf_ln
                0x00000000000b39e8                blasfeo_ref_dsyrk_dpotrf_ln_mn
                0x00000000000b48d8                blasfeo_ref_dpstrf_l
                0x00000000000b4e38                blasfeo_ref_dgetrf_np
                0x00000000000b6234                blasfeo_ref_dgetrf_rp
                0x00000000000b73e0                blasfeo_ref_dgeqrf_worksize
                0x00000000000b73e8                blasfeo_ref_dgeqrf
                0x00000000000b8484                blasfeo_ref_dgelqf_worksize
                0x00000000000b848c                blasfeo_ref_dgelqf
                0x00000000000b9548                blasfeo_ref_dorglq_worksize
                0x00000000000b9554                blasfeo_ref_dorglq
                0x00000000000b956c                blasfeo_ref_dgelqf_pd
                0x00000000000ba6e4                blasfeo_ref_dgelqf_pd_la
                0x00000000000bb968                blasfeo_ref_dgelqf_pd_lla
 .text          0x00000000000bd764       0x28 C:\Users\Administrator\acados_neu\buildDS1403\install\lib\libblasfeo.a(kernel_align_generic.c.obj)
                0x00000000000bd764                blasfeo_align_4096_byte
                0x00000000000bd77c                blasfeo_align_64_byte
 .text          0x00000000000bd78c       0x2c C:\Users\Administrator\acados_neu\buildDS1403\install\lib\libblasfeo.a(kernel_d_aux_lib.c.obj)
                0x00000000000bd78c                kernel_dvecld_inc1
                0x00000000000bd790                kernel_dveccp_inc1
 .text          0x00000000000bd7b8     0x2078 C:\Users\Administrator\acados_neu\buildDS1403\install\lib\libblasfeo.a(kernel_dgecp_lib4.c.obj)
                0x00000000000bd7b8                kernel_dgecp_4_0_lib4
                0x00000000000bd9e0                kernel_dgecpsc_4_0_lib4
                0x00000000000bdbac                kernel_dgecpsc_4_1_lib4
                0x00000000000bdd98                kernel_dgecpsc_4_2_lib4
                0x00000000000bdf84                kernel_dgecpsc_4_3_lib4
                0x00000000000be170                kernel_dgecpsc_3_0_lib4
                0x00000000000be2dc                kernel_dgecpsc_3_2_lib4
                0x00000000000be468                kernel_dgecpsc_3_3_lib4
                0x00000000000be5f4                kernel_dgecpsc_2_0_lib4
                0x00000000000be708                kernel_dgecpsc_2_3_lib4
                0x00000000000be83c                kernel_dgecpsc_1_0_lib4
                0x00000000000be908                kernel_dgead_4_0_lib4
                0x00000000000bead0                kernel_dgead_4_1_lib4
                0x00000000000becac                kernel_dgead_4_2_lib4
                0x00000000000bee88                kernel_dgead_4_3_lib4
                0x00000000000bf064                kernel_dgead_3_0_lib4
                0x00000000000bf1dc                kernel_dgead_3_2_lib4
                0x00000000000bf368                kernel_dgead_3_3_lib4
                0x00000000000bf4f4                kernel_dgead_2_0_lib4
                0x00000000000bf61c                kernel_dgead_2_3_lib4
                0x00000000000bf758                kernel_dgead_1_0_lib4
 .text          0x00000000000bf830     0xda08 C:\Users\Administrator\acados_neu\buildDS1403\install\lib\libblasfeo.a(kernel_dgemm_4x4_lib4.c.obj)
                0x00000000000bf830                kernel_dgemm_nt_4x4_lib4
                0x00000000000bfd00                kernel_dgemm_nt_4x4_vs_lib4
                0x00000000000c0054                kernel_dgemm_nt_4x4_gen_lib4
                0x00000000000c0cc8                kernel_dgemm_nn_4x4_lib4
                0x00000000000c14b8                kernel_dgemm_nn_4x4_vs_lib4
                0x00000000000c181c                kernel_dgemm_nn_4x4_gen_lib4
                0x00000000000c24a0                kernel_dgemm_tt_4x4_lib4
                0x00000000000c2660                kernel_dgemm_tt_4x4_vs_lib4
                0x00000000000c2a50                kernel_dgemm_tt_4x4_gen_lib4
                0x00000000000c3210                kernel_dsyrk_nn_u_4x4_lib4
                0x00000000000c330c                kernel_dsyrk_nn_u_4x4_vs_lib4
                0x00000000000c35d0                kernel_dsyrk_nt_l_4x4_lib4
                0x00000000000c36c0                kernel_dsyrk_nt_l_4x4_vs_lib4
                0x00000000000c38ac                kernel_dsyrk_nt_l_4x4_gen_lib4
                0x00000000000c47b8                kernel_dsyrk_nt_u_4x4_lib4
                0x00000000000c48a8                kernel_dsyrk_nt_u_4x4_vs_lib4
                0x00000000000c4b5c                kernel_dsyrk_nt_u_4x4_gen_lib4
                0x00000000000c56ac                kernel_dtrmm_nt_ru_4x4_lib4
                0x00000000000c58a8                kernel_dtrmm_nt_ru_4x4_vs_lib4
                0x00000000000c5da0                kernel_dtrmm_nn_rl_4x4_lib4
                0x00000000000c68b0                kernel_dtrmm_nn_rl_4x4_vs_lib4
                0x00000000000c7774                kernel_dtrmm_nn_rl_4x4_gen_lib4
                0x00000000000c8b70                kernel_dpotrf_nt_l_4x4_lib4
                0x00000000000c8e74                kernel_dpotrf_nt_l_4x4_vs_lib4
                0x00000000000c9288                kernel_dsyrk_dpotrf_nt_l_4x4_lib4
                0x00000000000c92fc                kernel_dsyrk_dpotrf_nt_l_4x4_vs_lib4
                0x00000000000c9388                kernel_dtrsm_nt_rl_inv_4x4_lib4
                0x00000000000c9554                kernel_dtrsm_nt_rl_inv_4x4_vs_lib4
                0x00000000000c997c                kernel_dgemm_dtrsm_nt_rl_inv_4x4_lib4
                0x00000000000c99f8                kernel_dgemm_dtrsm_nt_rl_inv_4x4_vs_lib4
                0x00000000000c9a90                kernel_dtrsm_nt_rl_one_4x4_lib4
                0x00000000000c9c0c                kernel_dtrsm_nt_rl_one_4x4_vs_lib4
                0x00000000000ca03c                kernel_dtrsm_nt_ru_inv_4x4_lib4
                0x00000000000ca1fc                kernel_dtrsm_nt_ru_inv_4x4_vs_lib4
                0x00000000000ca6bc                kernel_dtrsm_nt_ru_one_4x4_lib4
                0x00000000000ca844                kernel_dtrsm_nt_ru_one_4x4_vs_lib4
                0x00000000000cacdc                kernel_dgetrf_nn_4x4_lib4
                0x00000000000cae50                kernel_dgetrf_nn_4x4_vs_lib4
                0x00000000000cb22c                kernel_dgetrf_nt_4x4_lib4
                0x00000000000cb3a0                kernel_dgetrf_nt_4x4_vs_lib4
                0x00000000000cb770                kernel_dtrsm_nn_ll_inv_4x4_lib4
                0x00000000000cb93c                kernel_dtrsm_nn_ll_inv_4x4_vs_lib4
                0x00000000000cbbe4                kernel_dtrsm_nn_ll_one_4x4_lib4
                0x00000000000cbd74                kernel_dtrsm_nn_ll_one_4x4_vs_lib4
                0x00000000000cbff0                kernel_dtrsm_nn_ru_inv_4x4_lib4
                0x00000000000cc1c8                kernel_dtrsm_nn_ru_inv_4x4_vs_lib4
                0x00000000000cc5fc                kernel_dtrsm_nn_lu_inv_4x4_lib4
                0x00000000000cc7d0                kernel_dtrsm_nn_lu_inv_4x4_vs_lib4
                0x00000000000ccc44                kernel_dtrsm_nn_lu_one_4x4_lib4
                0x00000000000ccddc                kernel_dtrsm_nn_lu_one_4x4_vs_lib4
 .text          0x00000000000cd238     0x119c C:\Users\Administrator\acados_neu\buildDS1403\install\lib\libblasfeo.a(kernel_dgemm_diag_lib4.c.obj)
                0x00000000000cd238                kernel_dgemm_diag_right_4_a0_lib4
                0x00000000000cd3f0                kernel_dgemm_diag_right_4_lib4
                0x00000000000cd678                kernel_dgemm_diag_right_3_lib4
                0x00000000000cd888                kernel_dgemm_diag_right_2_lib4
                0x00000000000cda20                kernel_dgemm_diag_right_1_lib4
                0x00000000000cdb3c                kernel_dgemm_diag_left_4_a0_lib4
                0x00000000000cdcdc                kernel_dgemm_diag_left_4_lib4
                0x00000000000cdf3c                kernel_dgemm_diag_left_3_lib4
                0x00000000000ce130                kernel_dgemm_diag_left_2_lib4
                0x00000000000ce2b8                kernel_dgemm_diag_left_1_lib4
 *fill*         0x00000000000ce3d4        0x4 
 .text          0x00000000000ce3d8     0x1cb0 C:\Users\Administrator\acados_neu\buildDS1403\install\lib\libblasfeo.a(kernel_dgemv_4_lib4.c.obj)
                0x00000000000ce3d8                kernel_dgemv_n_4_lib4
                0x00000000000ce5d0                kernel_dgemv_n_4_vs_lib4
                0x00000000000ce684                kernel_dgemv_n_4_gen_lib4
                0x00000000000ce788                kernel_dgemv_t_4_lib4
                0x00000000000cea28                kernel_dgemv_t_4_vs_lib4
                0x00000000000ceaec                kernel_dtrsv_ln_inv_4_vs_lib4
                0x00000000000cec48                kernel_dtrsv_ln_inv_4_lib4
                0x00000000000ced3c                kernel_dtrsv_ln_one_4_vs_lib4
                0x00000000000cee74                kernel_dtrsv_ln_one_4_lib4
                0x00000000000cef50                kernel_dtrsv_lt_inv_4_lib4
                0x00000000000cf048                kernel_dtrsv_lt_inv_3_lib4
                0x00000000000cf220                kernel_dtrsv_lt_inv_2_lib4
                0x00000000000cf3a0                kernel_dtrsv_lt_inv_1_lib4
                0x00000000000cf4c8                kernel_dtrsv_lt_one_4_lib4
                0x00000000000cf59c                kernel_dtrsv_lt_one_3_lib4
                0x00000000000cf750                kernel_dtrsv_lt_one_2_lib4
                0x00000000000cf8c0                kernel_dtrsv_lt_one_1_lib4
                0x00000000000cf9d8                kernel_dtrsv_un_inv_4_lib4
                0x00000000000cfacc                kernel_dtrsv_ut_inv_4_vs_lib4
                0x00000000000cfc38                kernel_dtrsv_ut_inv_4_lib4
                0x00000000000cfd38                kernel_dtrmv_un_4_lib4
                0x00000000000cfe3c                kernel_dtrmv_ut_4_vs_lib4
                0x00000000000cff78                kernel_dtrmv_ut_4_lib4
 .text          0x00000000000d0088     0xab44 C:\Users\Administrator\acados_neu\buildDS1403\install\lib\libblasfeo.a(kernel_dgeqrf_4_lib4.c.obj)
                0x00000000000d0088                kernel_dgeqrf_4_lib4
                0x00000000000d10e8                kernel_dgeqrf_vs_lib4
                0x00000000000d1720                kernel_dlarf_4_lib4
                0x00000000000d2378                kernel_dlarf_t_4_lib4
                0x00000000000d3138                kernel_dgelqf_4_lib4
                0x00000000000d3770                kernel_dgelqf_vs_lib4
                0x00000000000d44c4                kernel_dlarft_4_lib4
                0x00000000000d45d8                kernel_dlarft_3_lib4
                0x00000000000d4678                kernel_dlarft_2_lib4
                0x00000000000d46d0                kernel_dlarft_1_lib4
                0x00000000000d46e0                kernel_dgelqf_dlarft4_4_lib4
                0x00000000000d4dd8                kernel_dlarfb4_rn_4_lib4
                0x00000000000d535c                kernel_dlarfb3_rn_4_lib4
                0x00000000000d56b8                kernel_dlarfb2_rn_4_lib4
                0x00000000000d58c4                kernel_dlarfb4_rn_1_lib4
                0x00000000000d5a70                kernel_dlarfb3_rn_1_lib4
                0x00000000000d5ba0                kernel_dlarfb2_rn_1_lib4
                0x00000000000d5c74                kernel_dlarfb1_rn_1_lib4
                0x00000000000d5cfc                kernel_dlarfb4_rt_4_lib4
                0x00000000000d6220                kernel_dlarfb3_rt_4_lib4
                0x00000000000d6560                kernel_dlarfb2_rt_4_lib4
                0x00000000000d676c                kernel_dlarfb1_rt_4_lib4
                0x00000000000d6888                kernel_dlarfb1_rn_4_lib4
                0x00000000000d688c                kernel_dlarfb4_rt_1_lib4
                0x00000000000d6a3c                kernel_dlarfb3_rt_1_lib4
                0x00000000000d6b6c                kernel_dlarfb2_rt_1_lib4
                0x00000000000d6c40                kernel_dlarfb1_rt_1_lib4
                0x00000000000d6cc8                kernel_dgelqf_pd_dlarft4_4_lib4
                0x00000000000d7410                kernel_dgelqf_pd_4_lib4
                0x00000000000d7a88                kernel_dgelqf_pd_vs_lib4
                0x00000000000d880c                kernel_dgelqf_pd_la_vs_lib4
                0x00000000000d8da8                kernel_dlarft_4_la_lib4
                0x00000000000d8eb0                kernel_dlarfb4_rn_4_la_lib4
                0x00000000000d929c                kernel_dlarfb4_rn_1_la_lib4
                0x00000000000d93e0                kernel_dgelqf_pd_lla_vs_lib4
                0x00000000000d9d20                kernel_dlarft_4_lla_lib4
                0x00000000000d9f00                kernel_dlarfb4_rn_4_lla_lib4
                0x00000000000da828                kernel_dlarfb4_rn_1_lla_lib4
 .text          0x00000000000dabcc      0x940 C:\Users\Administrator\acados_neu\buildDS1403\install\lib\libblasfeo.a(kernel_dgetr_lib4.c.obj)
                0x00000000000dabcc                kernel_dgetr_4_lib4
                0x00000000000dae98                kernel_dgetr_3_lib4
                0x00000000000db0b0                kernel_dgetr_2_lib4
                0x00000000000db240                kernel_dgetr_1_lib4
                0x00000000000db360                kernel_dgetr_4_0_lib4
 .text          0x00000000000db50c     0x1708 C:\Users\Administrator\acados_neu\buildDS1403\install\lib\libblasfeo.a(kernel_dgetrf_pivot_lib4.c.obj)
                0x00000000000db50c                kernel_drowsw_lib4
                0x00000000000db628                didamax_lib4
                0x00000000000db7ac                kernel_dgetrf_pivot_4_lib4
                0x00000000000dc0c4                kernel_dgetrf_pivot_4_vs_lib4
 .text          0x00000000000dcc14     0x2824 C:\Users\Administrator\acados_neu\buildDS1403\install\lib\libblasfeo.a(kernel_dpack_lib4.c.obj)
                0x00000000000dcc14                kernel_dpack_nn_4_lib4
                0x00000000000dce18                kernel_dpack_nn_4_vs_lib4
                0x00000000000dcf3c                kernel_dpack_tn_4_lib4
                0x00000000000dd128                kernel_dpack_tn_4_vs_lib4
                0x00000000000dd230                kernel_dpack_tt_4_lib4
                0x00000000000dd440                kernel_dpack_tt_4_vs_lib4
                0x00000000000dd7b8                kernel_dunpack_nn_4_lib4
                0x00000000000dd9c0                kernel_dunpack_nn_4_vs_lib4
                0x00000000000ddae4                kernel_dunpack_nt_4_lib4
                0x00000000000ddcbc                kernel_dunpack_nt_4_vs_lib4
                0x00000000000dddc8                kernel_dunpack_tt_4_lib4
                0x00000000000ddff0                kernel_dpacp_tn_4_lib4
                0x00000000000de2ac                kernel_dpacp_nt_4_lib4
                0x00000000000de560                kernel_dpacp_nn_4_lib4
                0x00000000000dec54                kernel_dpacp_nn_4_vs_lib4
 .text          0x00000000000df438      0xc24 C:\Users\Administrator\acados_neu\buildDS1403\install\lib\libblasfeo.a(kernel_dsymv_4_lib4.c.obj)
                0x00000000000df438                kernel_dgemv_nt_4_vs_lib4
                0x00000000000df778                kernel_dgemv_nt_4_lib4
                0x00000000000df7cc                kernel_dsymv_l_4_gen_lib4
                0x00000000000e0024                kernel_dsymv_l_4_lib4
 .text          0x00000000000e005c      0xfec C:\Users\Administrator\acados_neu\buildDS1403\install\lib\libhpipm.a(d_cond.c.obj)
                0x00000000000e005c                d_cond_qp_compute_dim
                0x00000000000e0198                d_cond_qp_arg_memsize
                0x00000000000e01a0                d_cond_qp_arg_create
                0x00000000000e01b4                d_cond_qp_arg_set_default
                0x00000000000e01d8                d_cond_qp_arg_set_cond_alg
                0x00000000000e01e0                d_cond_qp_arg_set_ric_alg
                0x00000000000e01e8                d_cond_qp_arg_set_cond_last_stage
                0x00000000000e01f0                d_cond_qp_arg_set_comp_prim_sol
                0x00000000000e01f8                d_cond_qp_arg_set_comp_dual_sol_eq
                0x00000000000e0200                d_cond_qp_arg_set_comp_dual_sol_ineq
                0x00000000000e0208                d_cond_qp_ws_memsize
                0x00000000000e0750                d_cond_qp_ws_create
                0x00000000000e0e84                d_cond_qp_cond
                0x00000000000e0f08                d_cond_qp_cond_lhs
                0x00000000000e0f64                d_cond_qp_cond_rhs
                0x00000000000e0fb8                d_cond_qp_expand_sol
                0x00000000000e0fbc                d_cond_qp_expand_primal_sol
                0x00000000000e0fc0                d_cond_qp_update
 .text          0x00000000000e1048     0xae54 C:\Users\Administrator\acados_neu\buildDS1403\install\lib\libhpipm.a(d_cond_aux.c.obj)
                0x00000000000e1048                d_cond_BAbt
                0x00000000000e12e8                d_cond_BAt
                0x00000000000e1478                d_cond_b
                0x00000000000e15ac                d_cond_RSQrq
                0x00000000000e2854                d_cond_RSQ
                0x00000000000e3538                d_cond_rq
                0x00000000000e3cd0                d_cond_DCtd
                0x00000000000e5894                d_cond_DCt
                0x00000000000e67e8                d_cond_d
                0x00000000000e7c4c                d_expand_sol
                0x00000000000e93a4                d_expand_primal_sol
                0x00000000000e95a0                d_update_cond_BAbt
                0x00000000000e9a20                d_update_cond_RSQrq_N2nx3
                0x00000000000ea650                d_update_cond_DCtd
 .text          0x00000000000ebe9c     0x1874 C:\Users\Administrator\acados_neu\buildDS1403\install\lib\libhpipm.a(d_part_cond.c.obj)
                0x00000000000ebe9c                d_part_cond_qp_compute_block_size
                0x00000000000ec0dc                d_part_cond_qp_compute_dim
                0x00000000000ec608                d_part_cond_qp_arg_memsize
                0x00000000000ec64c                d_part_cond_qp_arg_create
                0x00000000000ec6e8                d_part_cond_qp_arg_set_default
                0x00000000000ec748                d_part_cond_qp_arg_set_ric_alg
                0x00000000000ec78c                d_part_cond_qp_arg_set_comp_prim_sol
                0x00000000000ec7d0                d_part_cond_qp_arg_set_comp_dual_sol_eq
                0x00000000000ec814                d_part_cond_qp_arg_set_comp_dual_sol_ineq
                0x00000000000ec858                d_part_cond_qp_ws_memsize
                0x00000000000ec950                d_part_cond_qp_ws_create
                0x00000000000ecacc                d_part_cond_qp_cond_lhs
                0x00000000000ecd34                d_part_cond_qp_cond
                0x00000000000ecfe0                d_part_cond_qp_cond_rhs
                0x00000000000ed218                d_part_cond_qp_expand_sol
                0x00000000000ed458                d_part_cond_qp_update
 .text          0x00000000000ed710     0x27cc C:\Users\Administrator\acados_neu\buildDS1403\install\lib\libhpipm.a(d_dense_qp.c.obj)
                0x00000000000ed710                d_dense_qp_strsize
                0x00000000000ed718                d_dense_qp_memsize
                0x00000000000ed7d8                d_dense_qp_create
                0x00000000000ed9f0                d_dense_qp_set_all
                0x00000000000eddf0                d_dense_qp_get_all
                0x00000000000ee18c                d_dense_qp_set_H
                0x00000000000ee1c8                d_dense_qp_set_g
                0x00000000000ee1fc                d_dense_qp_set_A
                0x00000000000ee234                d_dense_qp_set_b
                0x00000000000ee268                d_dense_qp_set_idxb
                0x00000000000ee348                d_dense_qp_set_Jb
                0x00000000000ee3c4                d_dense_qp_set_lb
                0x00000000000ee418                d_dense_qp_set_lb_mask
                0x00000000000ee474                d_dense_qp_set_ub
                0x00000000000ee4e0                d_dense_qp_set_ub_mask
                0x00000000000ee544                d_dense_qp_set_C
                0x00000000000ee580                d_dense_qp_set_lg
                0x00000000000ee5d8                d_dense_qp_set_lg_mask
                0x00000000000ee638                d_dense_qp_set_ug
                0x00000000000ee6a8                d_dense_qp_set_ug_mask
                0x00000000000ee70c                d_dense_qp_set_idxs
                0x00000000000ee740                d_dense_qp_set_idxs_rev
                0x00000000000ee828                d_dense_qp_set_Jsb
                0x00000000000ee8a4                d_dense_qp_set_Jsg
                0x00000000000ee924                d_dense_qp_set_Zl
                0x00000000000ee958                d_dense_qp_set_Zu
                0x00000000000ee988                d_dense_qp_set_zl
                0x00000000000ee9bc                d_dense_qp_set_zu
                0x00000000000ee9f4                d_dense_qp_set_lls
                0x00000000000eea58                d_dense_qp_set_lls_mask
                0x00000000000eeac4                d_dense_qp_set_lus
                0x00000000000eeb28                d_dense_qp_set_lus_mask
                0x00000000000eeb94                d_dense_qp_set
                0x00000000000ef060                d_dense_qp_get_H
                0x00000000000ef094                d_dense_qp_get_g
                0x00000000000ef0c8                d_dense_qp_get_A
                0x00000000000ef100                d_dense_qp_get_b
                0x00000000000ef134                d_dense_qp_get_idxb
                0x00000000000ef214                d_dense_qp_get_lb
                0x00000000000ef248                d_dense_qp_get_lb_mask
                0x00000000000ef27c                d_dense_qp_get_ub
                0x00000000000ef2dc                d_dense_qp_get_ub_mask
                0x00000000000ef314                d_dense_qp_get_C
                0x00000000000ef348                d_dense_qp_get_lg
                0x00000000000ef37c                d_dense_qp_get_lg_mask
                0x00000000000ef3b0                d_dense_qp_get_ug
                0x00000000000ef410                d_dense_qp_get_ug_mask
                0x00000000000ef448                d_dense_qp_get_idxs
                0x00000000000ef488                d_dense_qp_get_idxs_rev
                0x00000000000ef570                d_dense_qp_get_Zl
                0x00000000000ef5a4                d_dense_qp_get_Zu
                0x00000000000ef5d8                d_dense_qp_get_zl
                0x00000000000ef60c                d_dense_qp_get_zu
                0x00000000000ef644                d_dense_qp_get_ls
                0x00000000000ef684                d_dense_qp_get_ls_mask
                0x00000000000ef6c4                d_dense_qp_get_us
                0x00000000000ef704                d_dense_qp_get_us_mask
                0x00000000000ef744                d_dense_qp_set_all_rowmaj
                0x00000000000efb40                d_dense_qp_get_all_rowmaj
 .text          0x00000000000efedc      0x248 C:\Users\Administrator\acados_neu\buildDS1403\install\lib\libhpipm.a(d_dense_qp_dim.c.obj)
                0x00000000000efedc                d_dense_qp_dim_strsize
                0x00000000000efee4                d_dense_qp_dim_memsize
                0x00000000000efeec                d_dense_qp_dim_create
                0x00000000000eff20                d_dense_qp_dim_set_all
                0x00000000000eff48                d_dense_qp_dim_set_nv
                0x00000000000eff50                d_dense_qp_dim_set_ne
                0x00000000000eff58                d_dense_qp_dim_set_nb
                0x00000000000eff60                d_dense_qp_dim_set_ng
                0x00000000000eff68                d_dense_qp_dim_set_nsb
                0x00000000000eff7c                d_dense_qp_dim_set_nsg
                0x00000000000eff90                d_dense_qp_dim_set_ns
                0x00000000000eff98                d_dense_qp_dim_set
                0x00000000000f00f4                d_dense_qp_dim_get_nv
                0x00000000000f0100                d_dense_qp_dim_get_ne
                0x00000000000f010c                d_dense_qp_dim_get_nb
                0x00000000000f0118                d_dense_qp_dim_get_ng
 *fill*         0x00000000000f0124        0x4 
 .text          0x00000000000f0128     0x41b4 C:\Users\Administrator\acados_neu\buildDS1403\install\lib\libhpipm.a(d_dense_qp_ipm.c.obj)
                0x00000000000f0128                d_dense_qp_ipm_arg_strsize
                0x00000000000f0130                d_dense_qp_ipm_arg_memsize
                0x00000000000f0138                d_dense_qp_ipm_arg_create
                0x00000000000f0144                d_dense_qp_ipm_arg_set_iter_max
                0x00000000000f0150                d_dense_qp_ipm_arg_set_alpha_min
                0x00000000000f0160                d_dense_qp_ipm_arg_set_mu0
                0x00000000000f016c                d_dense_qp_ipm_arg_set_tol_stat
                0x00000000000f017c                d_dense_qp_ipm_arg_set_tol_eq
                0x00000000000f018c                d_dense_qp_ipm_arg_set_tol_ineq
                0x00000000000f019c                d_dense_qp_ipm_arg_set_tol_comp
                0x00000000000f01ac                d_dense_qp_ipm_arg_set_reg_prim
                0x00000000000f01bc                d_dense_qp_ipm_arg_set_reg_dual
                0x00000000000f01cc                d_dense_qp_ipm_arg_set_warm_start
                0x00000000000f01d8                d_dense_qp_ipm_arg_set_pred_corr
                0x00000000000f01e4                d_dense_qp_ipm_arg_set_cond_pred_corr
                0x00000000000f01f0                d_dense_qp_ipm_arg_set_comp_res_pred
                0x00000000000f01fc                d_dense_qp_ipm_arg_set_comp_res_exit
                0x00000000000f0208                d_dense_qp_ipm_arg_set_lam_min
                0x00000000000f0218                d_dense_qp_ipm_arg_set_t_min
                0x00000000000f0228                d_dense_qp_ipm_arg_set_tau_min
                0x00000000000f0238                d_dense_qp_ipm_arg_set_kkt_fact_alg
                0x00000000000f0244                d_dense_qp_ipm_arg_set_remove_lin_dep_eq
                0x00000000000f0250                d_dense_qp_ipm_arg_set_compute_obj
                0x00000000000f025c                d_dense_qp_ipm_arg_set_split_step
                0x00000000000f0268                d_dense_qp_ipm_arg_set_t_lam_min
                0x00000000000f0274                d_dense_qp_ipm_arg_set_default
                0x00000000000f06c0                d_dense_qp_ipm_arg_set
                0x00000000000f0ab0                d_dense_qp_ipm_ws_strsize
                0x00000000000f0ab8                d_dense_qp_ipm_ws_memsize
                0x00000000000f0e24                d_dense_qp_ipm_ws_create
                0x00000000000f1788                d_dense_qp_ipm_get_status
                0x00000000000f1794                d_dense_qp_ipm_get_iter
                0x00000000000f17a0                d_dense_qp_ipm_get_max_res_stat
                0x00000000000f17b4                d_dense_qp_ipm_get_max_res_eq
                0x00000000000f17c8                d_dense_qp_ipm_get_max_res_ineq
                0x00000000000f17dc                d_dense_qp_ipm_get_max_res_comp
                0x00000000000f17f0                d_dense_qp_ipm_get_obj
                0x00000000000f1804                d_dense_qp_ipm_get_stat
                0x00000000000f1810                d_dense_qp_ipm_get_stat_m
                0x00000000000f181c                d_dense_qp_ipm_get
                0x00000000000f19d0                d_dense_qp_init_var
                0x00000000000f1d74                d_dense_qp_ipm_abs_step
                0x00000000000f2370                d_dense_qp_ipm_predict
                0x00000000000f255c                d_dense_qp_ipm_sens
                0x00000000000f2678                d_dense_qp_compute_step_length
                0x00000000000f267c                d_dense_qp_ipm_delta_step
                0x00000000000f38c8                d_dense_qp_ipm_solve
 *fill*         0x00000000000f42dc        0x4 
 .text          0x00000000000f42e0     0x4da8 C:\Users\Administrator\acados_neu\buildDS1403\install\lib\libhpipm.a(d_dense_qp_kkt.c.obj)
                0x00000000000f4834                d_fact_solve_kkt_unconstr_dense_qp
                0x00000000000f4e6c                d_fact_solve_kkt_step_dense_qp
                0x00000000000f69a8                d_fact_lq_solve_kkt_step_dense_qp
                0x00000000000f7b60                d_solve_kkt_step_dense_qp
                0x00000000000f88b4                d_dense_qp_remove_lin_dep_eq
                0x00000000000f8f58                d_dense_qp_restore_lin_dep_eq
                0x00000000000f8f90                d_dense_qp_compute_obj
 .text          0x00000000000f9088     0x110c C:\Users\Administrator\acados_neu\buildDS1403\install\lib\libhpipm.a(d_dense_qp_res.c.obj)
                0x00000000000f9088                d_dense_qp_res_memsize
                0x00000000000f90dc                d_dense_qp_res_create
                0x00000000000f91e0                d_dense_qp_res_ws_memsize
                0x00000000000f9218                d_dense_qp_res_ws_create
                0x00000000000f9340                d_dense_qp_res_compute
                0x00000000000f9984                d_dense_qp_res_compute_lin
                0x00000000000f9ed8                d_dense_qp_res_compute_inf_norm
                0x00000000000f9f64                d_dense_qp_res_get_all
 .text          0x00000000000fa194      0x5b8 C:\Users\Administrator\acados_neu\buildDS1403\install\lib\libhpipm.a(d_dense_qp_sol.c.obj)
                0x00000000000fa194                d_dense_qp_sol_strsize
                0x00000000000fa19c                d_dense_qp_sol_memsize
                0x00000000000fa1f0                d_dense_qp_sol_create
                0x00000000000fa2fc                d_dense_qp_sol_get_all
                0x00000000000fa490                d_dense_qp_sol_get_v
                0x00000000000fa4c0                d_dense_qp_sol_get_pi
                0x00000000000fa4f4                d_dense_qp_sol_get_lam_lb
                0x00000000000fa528                d_dense_qp_sol_get_lam_ub
                0x00000000000fa560                d_dense_qp_sol_get_lam_lg
                0x00000000000fa594                d_dense_qp_sol_get_lam_ug
                0x00000000000fa5cc                d_dense_qp_sol_get
                0x00000000000fa6fc                d_dense_qp_sol_get_valid_obj
                0x00000000000fa708                d_dense_qp_sol_get_obj
                0x00000000000fa718                d_dense_qp_sol_set_v
 *fill*         0x00000000000fa74c        0x4 
 .text          0x00000000000fa750      0x19c C:\Users\Administrator\acados_neu\buildDS1403\install\lib\libhpipm.a(d_core_qp_ipm.c.obj)
                0x00000000000fa750                d_memsize_core_qp_ipm
                0x00000000000fa770                d_create_core_qp_ipm
 *fill*         0x00000000000fa8ec        0x4 
 .text          0x00000000000fa8f0      0x5f4 C:\Users\Administrator\acados_neu\buildDS1403\install\lib\libhpipm.a(d_core_qp_ipm_aux.c.obj)
                0x00000000000fa8f0                d_compute_Gamma_gamma_qp
                0x00000000000fa9ec                d_compute_gamma_qp
                0x00000000000faa34                d_compute_lam_t_qp
                0x00000000000faa98                d_compute_alpha_qp
                0x00000000000fab3c                d_update_var_qp
                0x00000000000fad68                d_compute_mu_aff_qp
                0x00000000000fadd0                d_backup_res_m
                0x00000000000fadfc                d_compute_centering_correction_qp
                0x00000000000fae64                d_compute_centering_qp
                0x00000000000faeb0                d_compute_tau_min_qp
 *fill*         0x00000000000faee4        0x4 
 .text          0x00000000000faee8     0x53e4 C:\Users\Administrator\acados_neu\buildDS1403\install\lib\libhpipm.a(d_ocp_qp.c.obj)
                0x00000000000faee8                d_ocp_qp_strsize
                0x00000000000faef0                d_ocp_qp_memsize
                0x00000000000fb414                d_ocp_qp_create
                0x00000000000fbd78                d_ocp_qp_copy_all
                0x00000000000fc1d4                d_ocp_qp_set_all_zero
                0x00000000000fc5a8                d_ocp_qp_set_rhs_zero
                0x00000000000fc728                d_ocp_qp_set_all
                0x00000000000fcf08                d_ocp_qp_set_all_rowmaj
                0x00000000000fd6f0                d_ocp_qp_set_A
                0x00000000000fd74c                d_ocp_qp_set_B
                0x00000000000fd7a4                d_ocp_qp_set_b
                0x00000000000fd834                d_ocp_qp_set_Q
                0x00000000000fd87c                d_ocp_qp_set_S
                0x00000000000fd8c8                d_ocp_qp_set_R
                0x00000000000fd910                d_ocp_qp_set_q
                0x00000000000fd990                d_ocp_qp_set_r
                0x00000000000fda14                d_ocp_qp_set_lb
                0x00000000000fda4c                d_ocp_qp_set_lb_mask
                0x00000000000fda84                d_ocp_qp_set_lbx
                0x00000000000fdac4                d_ocp_qp_set_el_lbx
                0x00000000000fdafc                d_ocp_qp_set_lbx_mask
                0x00000000000fdb3c                d_ocp_qp_set_lbu
                0x00000000000fdb74                d_ocp_qp_set_lbu_mask
                0x00000000000fdbac                d_ocp_qp_set_ub
                0x00000000000fdc14                d_ocp_qp_set_ub_mask
                0x00000000000fdc58                d_ocp_qp_set_ubx
                0x00000000000fdce0                d_ocp_qp_set_el_ubx
                0x00000000000fdd30                d_ocp_qp_set_el
                0x00000000000fddf8                d_ocp_qp_set_ubx_mask
                0x00000000000fde50                d_ocp_qp_set_ubu
                0x00000000000fdec4                d_ocp_qp_set_ubu_mask
                0x00000000000fdf10                d_ocp_qp_set_idxb
                0x00000000000fdf58                d_ocp_qp_set_idxbx
                0x00000000000fdfc4                d_ocp_qp_set_Jbx
                0x00000000000fe07c                d_ocp_qp_set_idxbu
                0x00000000000fe0c4                d_ocp_qp_set_Jbu
                0x00000000000fe16c                d_ocp_qp_set_C
                0x00000000000fe1c4                d_ocp_qp_set_D
                0x00000000000fe214                d_ocp_qp_set_lg
                0x00000000000fe254                d_ocp_qp_set_lg_mask
                0x00000000000fe294                d_ocp_qp_set_ug
                0x00000000000fe2fc                d_ocp_qp_set_ug_mask
                0x00000000000fe340                d_ocp_qp_set_Zl
                0x00000000000fe378                d_ocp_qp_set_Zu
                0x00000000000fe3ac                d_ocp_qp_set_zl
                0x00000000000fe3f8                d_ocp_qp_set_zu
                0x00000000000fe448                d_ocp_qp_set_idxs
                0x00000000000fe48c                d_ocp_qp_set_idxs_rev
                0x00000000000fe4f4                d_ocp_qp_set_Jsbu
                0x00000000000fe598                d_ocp_qp_set_Jsbx
                0x00000000000fe644                d_ocp_qp_set_Jsg
                0x00000000000fe6f0                d_ocp_qp_set_lls
                0x00000000000fe740                d_ocp_qp_set_lls_mask
                0x00000000000fe790                d_ocp_qp_set_lus
                0x00000000000fe7e0                d_ocp_qp_set_lus_mask
                0x00000000000fe830                d_ocp_qp_set_idxe
                0x00000000000fe8ac                d_ocp_qp_set_idxbue
                0x00000000000fe8f4                d_ocp_qp_set_idxbxe
                0x00000000000fe960                d_ocp_qp_set_idxge
                0x00000000000fe9ec                d_ocp_qp_set_Jbxe
                0x00000000000fea64                d_ocp_qp_set_Jbue
                0x00000000000feaf8                d_ocp_qp_set_Jge
                0x00000000000febb4                d_ocp_qp_set_diag_H_flag
                0x00000000000febc4                d_ocp_qp_set
                0x00000000000ff670                d_ocp_qp_get_A
                0x00000000000ff6bc                d_ocp_qp_get_B
                0x00000000000ff704                d_ocp_qp_get_b
                0x00000000000ff748                d_ocp_qp_get_Q
                0x00000000000ff788                d_ocp_qp_get_S
                0x00000000000ff7cc                d_ocp_qp_get_R
                0x00000000000ff810                d_ocp_qp_get_q
                0x00000000000ff858                d_ocp_qp_get_r
                0x00000000000ff894                d_ocp_qp_get_lb
                0x00000000000ff8d0                d_ocp_qp_get_lb_mask
                0x00000000000ff90c                d_ocp_qp_get_ub
                0x00000000000ff980                d_ocp_qp_get_ub_mask
                0x00000000000ff9c8                d_ocp_qp_get_lbx
                0x00000000000ffa10                d_ocp_qp_get_lbx_mask
                0x00000000000ffa58                d_ocp_qp_get_ubx
                0x00000000000ffae0                d_ocp_qp_get
                0x00000000000ffbcc                d_ocp_qp_get_ubx_mask
                0x00000000000ffc28                d_ocp_qp_get_lbu
                0x00000000000ffc64                d_ocp_qp_get_lbu_mask
                0x00000000000ffca0                d_ocp_qp_get_ubu
                0x00000000000ffd1c                d_ocp_qp_get_ubu_mask
                0x00000000000ffd6c                d_ocp_qp_get_idxb
                0x00000000000ffdb4                d_ocp_qp_get_C
                0x00000000000ffe04                d_ocp_qp_get_D
                0x00000000000ffe4c                d_ocp_qp_get_lg
                0x00000000000ffe94                d_ocp_qp_get_lg_mask
                0x00000000000ffedc                d_ocp_qp_get_ug
                0x00000000000fff50                d_ocp_qp_get_ug_mask
                0x00000000000fff98                d_ocp_qp_get_Zl
                0x00000000000fffd4                d_ocp_qp_get_Zu
                0x0000000000100010                d_ocp_qp_get_zl
                0x000000000010005c                d_ocp_qp_get_zu
                0x00000000001000ac                d_ocp_qp_get_idxs
                0x0000000000100114                d_ocp_qp_get_idxs_rev
                0x000000000010017c                d_ocp_qp_get_lls
                0x00000000001001d0                d_ocp_qp_get_lls_mask
                0x0000000000100224                d_ocp_qp_get_lus
                0x0000000000100278                d_ocp_qp_get_lus_mask
 .text          0x00000000001002cc     0x1c60 C:\Users\Administrator\acados_neu\buildDS1403\install\lib\libhpipm.a(d_ocp_qp_dim.c.obj)
                0x00000000001002cc                d_ocp_qp_dim_strsize
                0x00000000001002d4                d_ocp_qp_dim_memsize
                0x00000000001002f0                d_ocp_qp_dim_create
                0x000000000010038c                d_ocp_qp_dim_copy_all
                0x0000000000100ec4                d_ocp_qp_dim_set_all
                0x000000000010186c                d_ocp_qp_dim_set_nx
                0x0000000000101878                d_ocp_qp_dim_set_nu
                0x0000000000101884                d_ocp_qp_dim_set_nbx
                0x00000000001018a4                d_ocp_qp_dim_set_nbu
                0x00000000001018c4                d_ocp_qp_dim_set_ng
                0x00000000001018d0                d_ocp_qp_dim_set_ns
                0x00000000001018dc                d_ocp_qp_dim_set_nsbx
                0x0000000000101908                d_ocp_qp_dim_set_nsbu
                0x0000000000101934                d_ocp_qp_dim_set_nsg
                0x0000000000101960                d_ocp_qp_dim_set_nbxe
                0x000000000010196c                d_ocp_qp_dim_set_nbue
                0x0000000000101978                d_ocp_qp_dim_set_nge
                0x0000000000101984                d_ocp_qp_dim_set
                0x0000000000101bf0                d_ocp_qp_dim_get_N
                0x0000000000101bfc                d_ocp_qp_dim_get_nx
                0x0000000000101c0c                d_ocp_qp_dim_get_nu
                0x0000000000101c1c                d_ocp_qp_dim_get_nbx
                0x0000000000101c2c                d_ocp_qp_dim_get_nbu
                0x0000000000101c3c                d_ocp_qp_dim_get_ng
                0x0000000000101c4c                d_ocp_qp_dim_get_ns
                0x0000000000101c5c                d_ocp_qp_dim_get_nsbx
                0x0000000000101c6c                d_ocp_qp_dim_get_nsbu
                0x0000000000101c7c                d_ocp_qp_dim_get_nsg
                0x0000000000101c8c                d_ocp_qp_dim_get_nbxe
                0x0000000000101c9c                d_ocp_qp_dim_get_nbue
                0x0000000000101cac                d_ocp_qp_dim_get_nge
                0x0000000000101cbc                d_ocp_qp_dim_get
 *fill*         0x0000000000101f2c        0x4 
 .text          0x0000000000101f30     0x6df0 C:\Users\Administrator\acados_neu\buildDS1403\install\lib\libhpipm.a(d_ocp_qp_ipm.c.obj)
                0x0000000000101f30                d_ocp_qp_ipm_arg_strsize
                0x0000000000101f38                d_ocp_qp_ipm_arg_memsize
                0x0000000000101f40                d_ocp_qp_ipm_arg_create
                0x0000000000101f4c                d_ocp_qp_ipm_arg_set_iter_max
                0x0000000000101f58                d_ocp_qp_ipm_arg_set_alpha_min
                0x0000000000101f68                d_ocp_qp_ipm_arg_set_mu0
                0x0000000000101f74                d_ocp_qp_ipm_arg_set_tol_stat
                0x0000000000101f84                d_ocp_qp_ipm_arg_set_tol_eq
                0x0000000000101f94                d_ocp_qp_ipm_arg_set_tol_ineq
                0x0000000000101fa4                d_ocp_qp_ipm_arg_set_tol_comp
                0x0000000000101fb4                d_ocp_qp_ipm_arg_set_reg_prim
                0x0000000000101fc4                d_ocp_qp_ipm_arg_set_warm_start
                0x0000000000101fd0                d_ocp_qp_ipm_arg_set_pred_corr
                0x0000000000101fdc                d_ocp_qp_ipm_arg_set_cond_pred_corr
                0x0000000000101fe8                d_ocp_qp_ipm_arg_set_ric_alg
                0x0000000000101ff4                d_ocp_qp_ipm_arg_set_comp_dual_sol_eq
                0x0000000000102000                d_ocp_qp_ipm_arg_set_comp_res_exit
                0x000000000010201c                d_ocp_qp_ipm_arg_set_comp_res_pred
                0x0000000000102028                d_ocp_qp_ipm_arg_set_lam_min
                0x0000000000102038                d_ocp_qp_ipm_arg_set_t_min
                0x0000000000102048                d_ocp_qp_ipm_arg_set_tau_min
                0x0000000000102058                d_ocp_qp_ipm_arg_set_split_step
                0x0000000000102064                d_ocp_qp_ipm_arg_set_var_init_scheme
                0x0000000000102070                d_ocp_qp_ipm_arg_set_t_lam_min
                0x000000000010207c                d_ocp_qp_ipm_arg_set_default
                0x00000000001024b8                d_ocp_qp_ipm_arg_set
                0x000000000010287c                d_ocp_qp_ipm_arg_deepcopy
                0x0000000000102980                d_ocp_qp_ipm_ws_strsize
                0x0000000000102988                d_ocp_qp_ipm_ws_memsize
                0x00000000001031a0                d_ocp_qp_ipm_ws_create
                0x0000000000104300                d_ocp_qp_ipm_get_status
                0x000000000010430c                d_ocp_qp_ipm_get_iter
                0x0000000000104318                d_ocp_qp_ipm_get_max_res_stat
                0x000000000010432c                d_ocp_qp_ipm_get_max_res_eq
                0x0000000000104340                d_ocp_qp_ipm_get_max_res_ineq
                0x0000000000104354                d_ocp_qp_ipm_get_max_res_comp
                0x0000000000104368                d_ocp_qp_ipm_get_obj
                0x000000000010437c                d_ocp_qp_ipm_get_stat
                0x0000000000104388                d_ocp_qp_ipm_get_stat_m
                0x0000000000104394                d_ocp_qp_ipm_get
                0x0000000000104548                d_ocp_qp_ipm_get_ric_Lr
                0x0000000000104590                d_ocp_qp_ipm_get_ric_Ls
                0x00000000001045dc                d_ocp_qp_ipm_get_ric_P
                0x0000000000104730                d_ocp_qp_ipm_get_ric_lr
                0x00000000001048a0                d_ocp_qp_ipm_get_ric_p
                0x0000000000104a78                d_ocp_qp_ipm_get_ric_K
                0x0000000000104b00                d_ocp_qp_ipm_get_ric_k
                0x0000000000104cb8                d_ocp_qp_init_var
                0x00000000001058f0                d_ocp_qp_ipm_abs_step
                0x0000000000106094                d_ocp_qp_ipm_delta_step
                0x0000000000107c58                d_ocp_qp_ipm_solve
                0x00000000001087e8                d_ocp_qp_ipm_predict
                0x0000000000108c10                d_ocp_qp_ipm_sens
 .text          0x0000000000108d20     0x71ec C:\Users\Administrator\acados_neu\buildDS1403\install\lib\libhpipm.a(d_ocp_qp_kkt.c.obj)
                0x00000000001094d8                d_ocp_qp_fact_solve_kkt_unconstr
                0x000000000010a6bc                d_ocp_qp_fact_solve_kkt_step
                0x000000000010c974                d_ocp_qp_fact_lq_solve_kkt_step
                0x000000000010e380                d_ocp_qp_solve_kkt_step
 *fill*         0x000000000010ff0c        0x4 
 .text          0x000000000010ff10     0x3478 C:\Users\Administrator\acados_neu\buildDS1403\install\lib\libhpipm.a(d_ocp_qp_red.c.obj)
                0x000000000010ff10                d_ocp_qp_dim_reduce_eq_dof
                0x00000000001101e0                d_ocp_qp_reduce_eq_dof_arg_memsize
                0x00000000001101e8                d_ocp_qp_reduce_eq_dof_arg_create
                0x00000000001101fc                d_ocp_qp_reduce_eq_dof_arg_set_default
                0x000000000011023c                d_ocp_qp_reduce_eq_dof_arg_set_alias_unchanged
                0x0000000000110248                d_ocp_qp_reduce_eq_dof_arg_set_comp_prim_sol
                0x0000000000110254                d_ocp_qp_reduce_eq_dof_arg_set_comp_dual_sol_eq
                0x0000000000110260                d_ocp_qp_reduce_eq_dof_arg_set_comp_dual_sol_ineq
                0x000000000011026c                d_ocp_qp_reduce_eq_dof_ws_memsize
                0x0000000000110450                d_ocp_qp_reduce_eq_dof_ws_create
                0x000000000011069c                d_ocp_qp_reduce_eq_dof
                0x000000000011168c                d_ocp_qp_reduce_eq_dof_lhs
                0x0000000000112048                d_ocp_qp_reduce_eq_dof_rhs
                0x000000000011295c                d_ocp_qp_restore_eq_dof
 .text          0x0000000000113388     0x28d4 C:\Users\Administrator\acados_neu\buildDS1403\install\lib\libhpipm.a(d_ocp_qp_res.c.obj)
                0x0000000000113388                d_ocp_qp_res_memsize
                0x000000000011368c                d_ocp_qp_res_create
                0x0000000000113c3c                d_ocp_qp_res_ws_memsize
                0x0000000000113e00                d_ocp_qp_res_ws_create
                0x00000000001140b4                d_ocp_qp_res_compute
                0x0000000000114a88                d_ocp_qp_res_compute_lin
                0x0000000000115248                d_ocp_qp_res_compute_inf_norm
                0x0000000000115560                d_ocp_qp_res_get_all
                0x0000000000115c1c                d_ocp_qp_res_get_max_res_stat
                0x0000000000115c2c                d_ocp_qp_res_get_max_res_eq
                0x0000000000115c3c                d_ocp_qp_res_get_max_res_ineq
                0x0000000000115c4c                d_ocp_qp_res_get_max_res_comp
 *fill*         0x0000000000115c5c        0x4 
 .text          0x0000000000115c60     0x1934 C:\Users\Administrator\acados_neu\buildDS1403\install\lib\libhpipm.a(d_ocp_qp_sol.c.obj)
                0x0000000000115c60                d_ocp_qp_sol_strsize
                0x0000000000115c68                d_ocp_qp_sol_memsize
                0x0000000000115f80                d_ocp_qp_sol_create
                0x00000000001165dc                d_ocp_qp_sol_copy_all
                0x00000000001167f4                d_ocp_qp_sol_get_all
                0x0000000000116aa0                d_ocp_qp_sol_get_all_rowmaj
                0x0000000000116aac                d_ocp_qp_sol_set_all
                0x0000000000116d6c                d_ocp_qp_sol_get_u
                0x0000000000116da8                d_ocp_qp_sol_get_x
                0x0000000000116dec                d_ocp_qp_sol_get_sl
                0x0000000000116e34                d_ocp_qp_sol_get_su
                0x0000000000116e80                d_ocp_qp_sol_get_pi
                0x0000000000116ec4                d_ocp_qp_sol_get_lam_lb
                0x0000000000116f00                d_ocp_qp_sol_get_lam_lbu
                0x0000000000116f3c                d_ocp_qp_sol_get_lam_lbx
                0x0000000000116f84                d_ocp_qp_sol_get_lam_ub
                0x0000000000116fcc                d_ocp_qp_sol_get_lam_ubu
                0x000000000011701c                d_ocp_qp_sol_get_lam_ubx
                0x0000000000117078                d_ocp_qp_sol_get_lam_lg
                0x00000000001170c0                d_ocp_qp_sol_get_lam_ug
                0x0000000000117108                d_ocp_qp_sol_get
                0x00000000001173a4                d_ocp_qp_sol_set_u
                0x00000000001173dc                d_ocp_qp_sol_set_x
                0x0000000000117414                d_ocp_qp_sol_set_sl
                0x000000000011745c                d_ocp_qp_sol_set_su
                0x00000000001174a8                d_ocp_qp_sol_set
 .text          0x0000000000117594       0xc8 C:\Users\Administrator\acados_neu\buildDS1403\install\lib\libhpipm.a(aux_mem.c.obj)
                0x0000000000117594                hpipm_zero_memset
 .text          0x000000000011765c       0x3c C:\Users\Administrator\acados_neu\buildDS1403\install\lib\libhpipm.a(aux_string.c.obj)
                0x000000000011765c                hpipm_strcmp
 .text          0x0000000000117698       0xc8 C:\Users\Administrator\acados_neu\buildDS1403\install\lib\libblasfeo.a(d_blas2_diag_lib.c.obj)
                0x0000000000117698                blasfeo_hp_dgemv_d
                0x0000000000117754                blasfeo_dgemv_d
 .text          0x0000000000117760       0x40 c:/program files/dspace rcphil 2021-a/compiler/linux440_550/target/arm-linux-gnueabihf/bin/../lib\libc_nonshared.a(elf-init.oS)
                0x0000000000117760                __libc_csu_init
                0x000000000011779c                __libc_csu_fini
 .text          0x00000000001177a0        0x0 c:/program files/dspace rcphil 2021-a/compiler/linux440_550/target/arm-linux-gnueabihf/bin/../lib/gcc/arm-linux-gnueabihf/5.5.0/crtend.o
 .text          0x00000000001177a0        0x0 c:/program files/dspace rcphil 2021-a/compiler/linux440_550/target/arm-linux-gnueabihf/bin/../lib/crtn.o
 *(.gnu.warning)
 *(.glue_7t)
 .glue_7t       0x00000000001177a0        0x0 linker stubs
 *(.glue_7)
 .glue_7        0x00000000001177a0        0x0 linker stubs
 *(.vfp11_veneer)
 .vfp11_veneer  0x00000000001177a0        0x0 linker stubs
 *(.v4_bx)
 .v4_bx         0x00000000001177a0        0x0 linker stubs

.fini           0x00000000001177a0        0x8
 *(SORT(.fini))
 .fini          0x00000000001177a0        0x4 c:/program files/dspace rcphil 2021-a/compiler/linux440_550/target/arm-linux-gnueabihf/bin/../lib/crti.o
                0x00000000001177a0                _fini
 .fini          0x00000000001177a4        0x4 c:/program files/dspace rcphil 2021-a/compiler/linux440_550/target/arm-linux-gnueabihf/bin/../lib/crtn.o
                [!provide]                        PROVIDE (__etext, .)
                [!provide]                        PROVIDE (_etext, .)
                [!provide]                        PROVIDE (etext, .)

.rodata         0x00000000001177a8     0x5c04
 *(.rodata .rodata.* .gnu.linkonce.r.*)
 .rodata.cst4   0x00000000001177a8        0x4 c:/program files/dspace rcphil 2021-a/compiler/linux440_550/target/arm-linux-gnueabihf/bin/../lib/crt1.o
                0x00000000001177a8                _IO_stdin_used
 .rodata        0x00000000001177ac       0x4c dssimengine_main.oarm
                0x00000000001177ac                vtable for DsCApplicationMain
                0x00000000001177d4                typeinfo name for DsCApplicationMain
                0x00000000001177ec                typeinfo for DsCApplicationMain
 .rodata.str1.4
                0x00000000001177f8       0x26 dssimengine_main.oarm
 *fill*         0x000000000011781e        0x2 
 .rodata        0x0000000000117820      0x14c rtosal_task.oarm
                0x0000000000117820                vtable for DsCRtosAlPeriodic_Task_1
                0x0000000000117838                vtable for DsCRtosAlAcadosSourceTask
                0x0000000000117850                vtable for DsCRtosAlAcadosTrigger
                0x0000000000117868                vtable for DsCRtosAlTask_iAsynchronous_Function_
                0x00000000001178c0                typeinfo name for DsCRtosAlPeriodic_Task_1
                0x00000000001178dc                typeinfo for DsCRtosAlPeriodic_Task_1
                0x00000000001178e8                typeinfo name for DsCRtosAlAcadosSourceTask
                0x0000000000117904                typeinfo for DsCRtosAlAcadosSourceTask
                0x0000000000117910                typeinfo name for DsCRtosAlAcadosTrigger
                0x000000000011792c                typeinfo for DsCRtosAlAcadosTrigger
                0x0000000000117938                typeinfo name for DsCRtosAlTask_iAsynchronous_Function_
                0x0000000000117960                typeinfo for DsCRtosAlTask_iAsynchronous_Function_
 .rodata.str1.4
                0x000000000011796c       0xf2 rtosal_task.oarm
 *fill*         0x0000000000117a5e        0x2 
 .rodata        0x0000000000117a60        0xe rtosal_simengineap.oarm
 *fill*         0x0000000000117a6e        0x2 
 .rodata.str1.4
                0x0000000000117a70      0x11e rtosal_simengineap.oarm
 *fill*         0x0000000000117b8e        0x2 
 .rodata.str1.4
                0x0000000000117b90        0xe IOCode_Data.oarm
 *fill*         0x0000000000117b9e        0x2 
 .rodata.str1.4
                0x0000000000117ba0       0x47 dssimengine_accesspoint_Digital_Incremental_Encoder_In.oarm
 *fill*         0x0000000000117be7        0x1 
 .rodata.str1.4
                0x0000000000117be8        0xf dssimengine_accesspoint_Voltage_In.oarm
 *fill*         0x0000000000117bf7        0x1 
 .rodata.str1.4
                0x0000000000117bf8       0x10 dssimengine_accesspoint_Voltage_Out.oarm
 .rodata.str1.4
                0x0000000000117c08       0x84 C:\Users\Administrator\Furuta\Furuta\Furuta_Acados\Build\Furuta_Model\Compile\Furuta_Model\Furuta_Model.a(Furuta_Model_dsrtmdlfcn.oarm)
 .rodata        0x0000000000117c8c        0x4 C:\Users\Administrator\Furuta\Furuta\Furuta_Acados\Build\Furuta_Model\Compile\Furuta_Model\Furuta_Model.a(Furuta_Model.oarm)
                0x0000000000117c8c                Furuta_Model_M
 .rodata.str1.4
                0x0000000000117c90       0x3b C:\Users\Administrator\Furuta\Furuta\Furuta_Acados\Build\Furuta_Model\Compile\Furuta_Model\Furuta_Model.a(Furuta_Model.oarm)
 *fill*         0x0000000000117ccb        0x5 
 .rodata        0x0000000000117cd0       0x50 C:\Users\Administrator\Furuta\Furuta\Furuta_Acados\Build\Furuta_Model\Compile\Furuta_Model\Furuta_Model.a(Furuta_Model_data.oarm)
                0x0000000000117cd0                Furuta_Model_ConstP
 .rodata        0x0000000000117d20       0x13 C:\Users\Administrator\Furuta\Furuta\Furuta_Acados\Build\Furuta_Model\Compile\Furuta_Model\Furuta_Model.a(rt_zcfcn.oarm)
 *fill*         0x0000000000117d33        0x1 
 .rodata.str1.4
                0x0000000000117d34       0x21 C:\Users\Administrator\Furuta\Furuta\Furuta_Acados\Build\Furuta_Model\Compile\Furuta_Model\Furuta_Model.a(acados_solver_sfunction_furuta.oarm)
                                         0x39 (size before relaxing)
 *fill*         0x0000000000117d55        0x3 
 .rodata        0x0000000000117d58       0x42 C:\Users\Administrator\Furuta\Furuta\Furuta_Acados\Build\Furuta_Model\Compile\Furuta_Model\Furuta_Model.a(acados_solver_furuta.oarm)
 *fill*         0x0000000000117d9a        0x2 
 .rodata.str1.4
                0x0000000000117d9c      0x712 C:\Users\Administrator\Furuta\Furuta\Furuta_Acados\Build\Furuta_Model\Compile\Furuta_Model\Furuta_Model.a(acados_solver_furuta.oarm)
                                        0x742 (size before relaxing)
 *fill*         0x00000000001184ae        0x2 
 .rodata        0x00000000001184b0       0x58 C:\Users\Administrator\Furuta\Furuta\Furuta_Acados\Build\Furuta_Model\Compile\Furuta_Model\Furuta_Model.a(furuta_expl_ode_fun.oarm)
 .rodata.str1.4
                0x0000000000118508        0xf C:\Users\Administrator\Furuta\Furuta\Furuta_Acados\Build\Furuta_Model\Compile\Furuta_Model\Furuta_Model.a(furuta_expl_ode_fun.oarm)
 *fill*         0x0000000000118517        0x1 
 .rodata        0x0000000000118518       0xd0 C:\Users\Administrator\Furuta\Furuta\Furuta_Acados\Build\Furuta_Model\Compile\Furuta_Model\Furuta_Model.a(furuta_expl_vde_forw.oarm)
 .rodata.str1.4
                0x00000000001185e8        0xf C:\Users\Administrator\Furuta\Furuta\Furuta_Acados\Build\Furuta_Model\Compile\Furuta_Model\Furuta_Model.a(furuta_expl_vde_forw.oarm)
                                         0x1f (size before relaxing)
 *fill*         0x00000000001185f7        0x1 
 .rodata.str1.4
                0x00000000001185f8      0x587 C:\Users\Administrator\acados_neu\buildDS1403\install\lib\libacados.a(ocp_nlp_common.c.obj)
                                        0x66f (size before relaxing)
 *fill*         0x0000000000118b7f        0x1 
 .rodata.str1.4
                0x0000000000118b80       0x3f C:\Users\Administrator\acados_neu\buildDS1403\install\lib\libacados.a(ocp_nlp_reg_common.c.obj)
 *fill*         0x0000000000118bbf        0x1 
 .rodata.str1.4
                0x0000000000118bc0       0xa8 C:\Users\Administrator\acados_neu\buildDS1403\install\lib\libacados.a(ocp_qp_xcond_solver.c.obj)
                                         0xb0 (size before relaxing)
 .rodata.str1.4
                0x0000000000118c68      0x188 C:\Users\Administrator\acados_neu\buildDS1403\install\lib\libacados.a(sim_common.c.obj)
                                        0x1b4 (size before relaxing)
 .rodata        0x0000000000118df0       0x40 C:\Users\Administrator\acados_neu\buildDS1403\install\lib\libacados.a(math.c.obj)
 .rodata.str1.4
                0x0000000000118e30       0x1f C:\Users\Administrator\acados_neu\buildDS1403\install\lib\libacados.a(math.c.obj)
 *fill*         0x0000000000118e4f        0x1 
 .rodata.str1.4
                0x0000000000118e50      0x545 C:\Users\Administrator\acados_neu\buildDS1403\install\lib\libacados.a(ocp_nlp_interface.c.obj)
                                        0x581 (size before relaxing)
 *fill*         0x0000000000119395        0x3 
 .rodata.str1.4
                0x0000000000119398      0x13c C:\Users\Administrator\acados_neu\buildDS1403\install\lib\libacados.a(ocp_qp_interface.c.obj)
                                        0x17c (size before relaxing)
 .rodata.str1.4
                0x00000000001194d4       0xd7 C:\Users\Administrator\acados_neu\buildDS1403\install\lib\libacados.a(dense_qp_hpipm.c.obj)
                                         0xfb (size before relaxing)
 *fill*         0x00000000001195ab        0x1 
 .rodata.str1.4
                0x00000000001195ac      0x31b C:\Users\Administrator\acados_neu\buildDS1403\install\lib\libacados.a(ocp_nlp_constraints_bgh.c.obj)
                                        0x3b3 (size before relaxing)
 *fill*         0x00000000001198c7        0x1 
 .rodata.str1.4
                0x00000000001198c8      0x33b C:\Users\Administrator\acados_neu\buildDS1403\install\lib\libacados.a(ocp_nlp_constraints_bgp.c.obj)
                                        0x447 (size before relaxing)
 *fill*         0x0000000000119c03        0x1 
 .rodata.str1.4
                0x0000000000119c04      0x1ea C:\Users\Administrator\acados_neu\buildDS1403\install\lib\libacados.a(ocp_nlp_cost_conl.c.obj)
                                        0x222 (size before relaxing)
 *fill*         0x0000000000119dee        0x2 
 .rodata.str1.4
                0x0000000000119df0      0x28e C:\Users\Administrator\acados_neu\buildDS1403\install\lib\libacados.a(ocp_nlp_cost_external.c.obj)
                                        0x2d6 (size before relaxing)
 *fill*         0x000000000011a07e        0x2 
 .rodata.str1.4
                0x000000000011a080      0x200 C:\Users\Administrator\acados_neu\buildDS1403\install\lib\libacados.a(ocp_nlp_cost_ls.c.obj)
                                        0x254 (size before relaxing)
 .rodata.str1.4
                0x000000000011a280      0x286 C:\Users\Administrator\acados_neu\buildDS1403\install\lib\libacados.a(ocp_nlp_cost_nls.c.obj)
                                        0x322 (size before relaxing)
 *fill*         0x000000000011a506        0x2 
 .rodata.str1.4
                0x000000000011a508      0x224 C:\Users\Administrator\acados_neu\buildDS1403\install\lib\libacados.a(ocp_nlp_dynamics_cont.c.obj)
                                        0x2ec (size before relaxing)
 .rodata.str1.4
                0x000000000011a72c      0x25f C:\Users\Administrator\acados_neu\buildDS1403\install\lib\libacados.a(ocp_nlp_dynamics_disc.c.obj)
                                        0x2d3 (size before relaxing)
 *fill*         0x000000000011a98b        0x1 
 .rodata.str1.4
                0x000000000011a98c       0xe5 C:\Users\Administrator\acados_neu\buildDS1403\install\lib\libacados.a(ocp_nlp_reg_convexify.c.obj)
 *fill*         0x000000000011aa71        0x3 
 .rodata.str1.4
                0x000000000011aa74       0x7a C:\Users\Administrator\acados_neu\buildDS1403\install\lib\libacados.a(ocp_nlp_reg_mirror.c.obj)
                                         0x8e (size before relaxing)
 *fill*         0x000000000011aaee        0x2 
 .rodata.str1.4
                0x000000000011aaf0       0x79 C:\Users\Administrator\acados_neu\buildDS1403\install\lib\libacados.a(ocp_nlp_reg_noreg.c.obj)
 *fill*         0x000000000011ab69        0x3 
 .rodata.str1.4
                0x000000000011ab6c       0x7b C:\Users\Administrator\acados_neu\buildDS1403\install\lib\libacados.a(ocp_nlp_reg_project.c.obj)
                                         0x8f (size before relaxing)
 *fill*         0x000000000011abe7        0x1 
 .rodata.str1.4
                0x000000000011abe8       0xba C:\Users\Administrator\acados_neu\buildDS1403\install\lib\libacados.a(ocp_nlp_reg_project_reduc_hess.c.obj)
                                         0xd2 (size before relaxing)
 *fill*         0x000000000011aca2        0x2 
 .rodata.str1.4
                0x000000000011aca4      0x50e C:\Users\Administrator\acados_neu\buildDS1403\install\lib\libacados.a(ocp_nlp_sqp.c.obj)
                                        0x612 (size before relaxing)
 *fill*         0x000000000011b1b2        0x2 
 .rodata.str1.4
                0x000000000011b1b4      0x490 C:\Users\Administrator\acados_neu\buildDS1403\install\lib\libacados.a(ocp_nlp_sqp_rti.c.obj)
                                        0x738 (size before relaxing)
 .rodata.str1.4
                0x000000000011b644       0xdf C:\Users\Administrator\acados_neu\buildDS1403\install\lib\libacados.a(ocp_qp_full_condensing.c.obj)
                                        0x12b (size before relaxing)
 *fill*         0x000000000011b723        0x1 
 .rodata.str1.4
                0x000000000011b724       0xd5 C:\Users\Administrator\acados_neu\buildDS1403\install\lib\libacados.a(ocp_qp_hpipm.c.obj)
                                        0x129 (size before relaxing)
 *fill*         0x000000000011b7f9        0x3 
 .rodata.str1.4
                0x000000000011b7fc       0xda C:\Users\Administrator\acados_neu\buildDS1403\install\lib\libacados.a(ocp_qp_partial_condensing.c.obj)
                                        0x126 (size before relaxing)
 *fill*         0x000000000011b8d6        0x2 
 .rodata.str1.4
                0x000000000011b8d8      0x300 C:\Users\Administrator\acados_neu\buildDS1403\install\lib\libacados.a(sim_erk_integrator.c.obj)
                                        0x34c (size before relaxing)
 .rodata.str1.4
                0x000000000011bbd8      0x40c C:\Users\Administrator\acados_neu\buildDS1403\install\lib\libacados.a(sim_gnsf.c.obj)
                                        0x454 (size before relaxing)
 .rodata.str1.4
                0x000000000011bfe4      0x2bc C:\Users\Administrator\acados_neu\buildDS1403\install\lib\libacados.a(sim_irk_integrator.c.obj)
                                        0x398 (size before relaxing)
 .rodata.str1.4
                0x000000000011c2a0      0x363 C:\Users\Administrator\acados_neu\buildDS1403\install\lib\libacados.a(sim_lifted_irk_integrator.c.obj)
                                        0x3b3 (size before relaxing)
 *fill*         0x000000000011c603        0x1 
 .rodata.str1.4
                0x000000000011c604      0x160 C:\Users\Administrator\acados_neu\buildDS1403\install\lib\libacados.a(external_function_generic.c.obj)
 .rodata.str1.4
                0x000000000011c764      0x1e1 C:\Users\Administrator\acados_neu\buildDS1403\install\lib\libacados.a(print.c.obj)
                                        0x1e5 (size before relaxing)
 *fill*         0x000000000011c945        0x3 
 .rodata.str1.4
                0x000000000011c948       0xb4 C:\Users\Administrator\acados_neu\buildDS1403\install\lib\libacados.a(sim_interface.c.obj)
                                         0xf8 (size before relaxing)
 .rodata.str1.4
                0x000000000011c9fc       0x32 C:\Users\Administrator\acados_neu\buildDS1403\install\lib\libacados.a(dense_qp_common.c.obj)
                                         0x3a (size before relaxing)
 *fill*         0x000000000011ca2e        0x2 
 .rodata.str1.4
                0x000000000011ca30       0xf4 C:\Users\Administrator\acados_neu\buildDS1403\install\lib\libacados.a(sim_collocation_utils.c.obj)
 .rodata.str1.4
                0x000000000011cb24       0x33 C:\Users\Administrator\acados_neu\buildDS1403\install\lib\libhpipm.a(d_cond.c.obj)
 *fill*         0x000000000011cb57        0x1 
 .rodata.str1.4
                0x000000000011cb58       0x69 C:\Users\Administrator\acados_neu\buildDS1403\install\lib\libhpipm.a(d_part_cond.c.obj)
 *fill*         0x000000000011cbc1        0x3 
 .rodata.str1.4
                0x000000000011cbc4       0xde C:\Users\Administrator\acados_neu\buildDS1403\install\lib\libhpipm.a(d_dense_qp.c.obj)
                                         0xfa (size before relaxing)
 *fill*         0x000000000011cca2        0x2 
 .rodata.str1.4
                0x000000000011cca4       0x37 C:\Users\Administrator\acados_neu\buildDS1403\install\lib\libhpipm.a(d_dense_qp_dim.c.obj)
                                         0x43 (size before relaxing)
 *fill*         0x000000000011ccdb        0x1 
 .rodata.str1.4
                0x000000000011ccdc      0x1c9 C:\Users\Administrator\acados_neu\buildDS1403\install\lib\libhpipm.a(d_dense_qp_ipm.c.obj)
                                        0x231 (size before relaxing)
 *fill*         0x000000000011cea5        0x3 
 .rodata.str1.4
                0x000000000011cea8       0x68 C:\Users\Administrator\acados_neu\buildDS1403\install\lib\libhpipm.a(d_dense_qp_res.c.obj)
 .rodata.str1.4
                0x000000000011cf10       0x8e C:\Users\Administrator\acados_neu\buildDS1403\install\lib\libhpipm.a(d_dense_qp_sol.c.obj)
                                         0x92 (size before relaxing)
 *fill*         0x000000000011cf9e        0x2 
 .rodata.str1.4
                0x000000000011cfa0       0x2d C:\Users\Administrator\acados_neu\buildDS1403\install\lib\libhpipm.a(d_core_qp_ipm.c.obj)
 *fill*         0x000000000011cfcd        0x3 
 .rodata.str1.4
                0x000000000011cfd0      0x14b C:\Users\Administrator\acados_neu\buildDS1403\install\lib\libhpipm.a(d_ocp_qp.c.obj)
                                        0x21f (size before relaxing)
 *fill*         0x000000000011d11b        0x1 
 .rodata.str1.4
                0x000000000011d11c       0x87 C:\Users\Administrator\acados_neu\buildDS1403\install\lib\libhpipm.a(d_ocp_qp_dim.c.obj)
                                         0xc7 (size before relaxing)
 *fill*         0x000000000011d1a3        0x1 
 .rodata.str1.4
                0x000000000011d1a4       0xdf C:\Users\Administrator\acados_neu\buildDS1403\install\lib\libhpipm.a(d_ocp_qp_ipm.c.obj)
                                        0x213 (size before relaxing)
 *fill*         0x000000000011d283        0x1 
 .rodata.str1.4
                0x000000000011d284       0x62 C:\Users\Administrator\acados_neu\buildDS1403\install\lib\libhpipm.a(d_ocp_qp_res.c.obj)
 *fill*         0x000000000011d2e6        0x2 
 .rodata.str1.4
                0x000000000011d2e8       0xc4 C:\Users\Administrator\acados_neu\buildDS1403\install\lib\libhpipm.a(d_ocp_qp_sol.c.obj)
                                         0xf7 (size before relaxing)

.rodata1
 *(.rodata1)

.ARM.extab      0x000000000011d3ac      0x268
 *(.ARM.extab* .gnu.linkonce.armextab.*)
 .ARM.extab     0x000000000011d3ac        0x0 c:/program files/dspace rcphil 2021-a/compiler/linux440_550/target/arm-linux-gnueabihf/bin/../lib/crt1.o
 .ARM.extab     0x000000000011d3ac        0x0 c:/program files/dspace rcphil 2021-a/compiler/linux440_550/target/arm-linux-gnueabihf/bin/../lib/gcc/arm-linux-gnueabihf/5.5.0/crtbegin.o
 .ARM.extab     0x000000000011d3ac        0x0 mdladapter_mdlfunctions.oarm
 .ARM.extab     0x000000000011d3ac        0x0 data_in_ap.oarm
 .ARM.extab     0x000000000011d3ac        0x0 data_out_ap.oarm
 .ARM.extab     0x000000000011d3ac        0x0 fm_entry_ap.oarm
 .ARM.extab     0x000000000011d3ac        0x0 fm_exit_ap.oarm
 .ARM.extab     0x000000000011d3ac      0x150 dssimengine_accesspoint.oarm
 .ARM.extab     0x000000000011d4fc        0x0 dssimengine_api.oarm
 .ARM.extab     0x000000000011d4fc       0x18 dssimengine_main.oarm
 .ARM.extab.text.startup
                0x000000000011d514        0x0 dssimengine_main.oarm
 .ARM.extab     0x000000000011d514       0x6f rtosal_task.oarm
 .ARM.extab     0x000000000011d583        0x0 rtosal_taskap.oarm
 .ARM.extab.text.startup
                0x000000000011d583        0x0 rtosal_simengineap.oarm
 *fill*         0x000000000011d583        0x1 
 .ARM.extab     0x000000000011d584       0x18 rtosal_simengineap.oarm
 .ARM.extab.text.startup
                0x000000000011d59c        0x0 IOCode_Data.oarm
 .ARM.extab     0x000000000011d59c        0x0 dssimengine_accesspoint_Digital_Incremental_Encoder_In.oarm
 .ARM.extab     0x000000000011d59c        0x0 dssimengine_accesspoint_Voltage_In.oarm
 .ARM.extab     0x000000000011d59c        0x0 dssimengine_accesspoint_Voltage_Out.oarm
 .ARM.extab     0x000000000011d59c        0x0 C:\Users\Administrator\Furuta\Furuta\Furuta_Acados\Build\Furuta_Model\Compile\Furuta_Model\Furuta_Model.a(Furuta_Model_dsmpbap.oarm)
 .ARM.extab     0x000000000011d59c        0x0 C:\Users\Administrator\Furuta\Furuta\Furuta_Acados\Build\Furuta_Model\Compile\Furuta_Model\Furuta_Model.a(Furuta_Model_dsrtmdlfcn.oarm)
 .ARM.extab     0x000000000011d59c        0x0 C:\Users\Administrator\Furuta\Furuta\Furuta_Acados\Build\Furuta_Model\Compile\Furuta_Model\Furuta_Model.a(Furuta_Model_dsrttf.oarm)
 .ARM.extab     0x000000000011d59c       0x3c C:\Users\Administrator\Furuta\Furuta\Furuta_Acados\Build\Furuta_Model\Compile\Furuta_Model\Furuta_Model.a(Furuta_Model.oarm)
 .ARM.extab     0x000000000011d5d8        0xc C:\Users\Administrator\Furuta\Furuta\Furuta_Acados\Build\Furuta_Model\Compile\Furuta_Model\Furuta_Model.a(Furuta_Model_dsrtvdf.oarm)
 .ARM.extab     0x000000000011d5e4        0x0 C:\Users\Administrator\Furuta\Furuta\Furuta_Acados\Build\Furuta_Model\Compile\Furuta_Model\Furuta_Model.a(rt_nonfinite.oarm)
 .ARM.extab     0x000000000011d5e4        0x0 C:\Users\Administrator\Furuta\Furuta\Furuta_Acados\Build\Furuta_Model\Compile\Furuta_Model\Furuta_Model.a(rt_zcfcn.oarm)
 .ARM.extab     0x000000000011d5e4        0xc C:\Users\Administrator\Furuta\Furuta\Furuta_Acados\Build\Furuta_Model\Compile\Furuta_Model\Furuta_Model.a(acados_solver_sfunction_furuta.oarm)
 .ARM.extab     0x000000000011d5f0        0x0 C:\Users\Administrator\Furuta\Furuta\Furuta_Acados\Build\Furuta_Model\Compile\Furuta_Model\Furuta_Model.a(rtGetInf.oarm)
 .ARM.extab     0x000000000011d5f0        0x0 C:\Users\Administrator\Furuta\Furuta\Furuta_Acados\Build\Furuta_Model\Compile\Furuta_Model\Furuta_Model.a(rtGetNaN.oarm)
 .ARM.extab     0x000000000011d5f0        0xc C:\Users\Administrator\Furuta\Furuta\Furuta_Acados\Build\Furuta_Model\Compile\Furuta_Model\Furuta_Model.a(acados_solver_furuta.oarm)
 .ARM.extab     0x000000000011d5fc        0xc C:\Users\Administrator\Furuta\Furuta\Furuta_Acados\Build\Furuta_Model\Compile\Furuta_Model\Furuta_Model.a(furuta_expl_ode_fun.oarm)
 .ARM.extab     0x000000000011d608        0xc C:\Users\Administrator\Furuta\Furuta\Furuta_Acados\Build\Furuta_Model\Compile\Furuta_Model\Furuta_Model.a(furuta_expl_vde_forw.oarm)
 .ARM.extab     0x000000000011d614        0x0 c:/program files/dspace rcphil 2021-a/compiler/linux440_550/target/arm-linux-gnueabihf/bin/../lib\libc_nonshared.a(elf-init.oS)
                [!provide]                        PROVIDE (__exidx_start, .)

.ARM.exidx      0x000000000011d614      0x468
 *(.ARM.exidx* .gnu.linkonce.armexidx.*)
 .ARM.exidx     0x000000000011d62c        0x8 c:/program files/dspace rcphil 2021-a/compiler/linux440_550/target/arm-linux-gnueabihf/bin/../lib/crt1.o
 .ARM.exidx     0x000000000011d634       0x10 c:/program files/dspace rcphil 2021-a/compiler/linux440_550/target/arm-linux-gnueabihf/bin/../lib/gcc/arm-linux-gnueabihf/5.5.0/crtbegin.o
                                         0x20 (size before relaxing)
 .ARM.exidx     0x000000000011d644       0x18 mdladapter_mdlfunctions.oarm
                                         0x20 (size before relaxing)
 .ARM.exidx     0x000000000011d65c        0x8 data_in_ap.oarm
                                         0x58 (size before relaxing)
 .ARM.exidx     0x000000000011d664        0x8 data_out_ap.oarm
                                         0x10 (size before relaxing)
 .ARM.exidx     0x000000000011d66c        0x0 fm_entry_ap.oarm
                                         0x18 (size before relaxing)
 .ARM.exidx     0x000000000011d66c        0x0 fm_exit_ap.oarm
                                         0x18 (size before relaxing)
 .ARM.exidx     0x000000000011d66c       0xe8 dssimengine_accesspoint.oarm
 .ARM.exidx     0x000000000011d754        0x8 dssimengine_api.oarm
                                         0x20 (size before relaxing)
 .ARM.exidx     0x000000000011d75c       0x28 dssimengine_main.oarm
                                         0x60 (size before relaxing)
 .ARM.exidx.text.startup
                0x000000000011d614       0x10 dssimengine_main.oarm
 .ARM.exidx     0x000000000011d784       0x60 rtosal_task.oarm
                                         0xd8 (size before relaxing)
 .ARM.exidx     0x000000000011d7e4       0x38 rtosal_taskap.oarm
                                         0x50 (size before relaxing)
 .ARM.exidx.text.startup
                0x000000000011d624        0x8 rtosal_simengineap.oarm
 .ARM.exidx     0x000000000011d81c       0x10 rtosal_simengineap.oarm
 .ARM.exidx.text.startup
                0x000000000011d62c        0x0 IOCode_Data.oarm
                                          0x8 (size before relaxing)
 .ARM.exidx     0x000000000011d82c       0x30 dssimengine_accesspoint_Digital_Incremental_Encoder_In.oarm
                                         0x40 (size before relaxing)
 .ARM.exidx     0x000000000011d85c       0x18 dssimengine_accesspoint_Voltage_In.oarm
                                         0x20 (size before relaxing)
 .ARM.exidx     0x000000000011d874       0x18 dssimengine_accesspoint_Voltage_Out.oarm
                                         0x28 (size before relaxing)
 .ARM.exidx     0x000000000011d88c       0x18 C:\Users\Administrator\Furuta\Furuta\Furuta_Acados\Build\Furuta_Model\Compile\Furuta_Model\Furuta_Model.a(Furuta_Model_dsmpbap.oarm)
 .ARM.exidx     0x000000000011d8a4       0x18 C:\Users\Administrator\Furuta\Furuta\Furuta_Acados\Build\Furuta_Model\Compile\Furuta_Model\Furuta_Model.a(Furuta_Model_dsrtmdlfcn.oarm)
                                         0x28 (size before relaxing)
 .ARM.exidx     0x000000000011d8bc        0x8 C:\Users\Administrator\Furuta\Furuta\Furuta_Acados\Build\Furuta_Model\Compile\Furuta_Model\Furuta_Model.a(Furuta_Model_dsrttf.oarm)
                                         0x10 (size before relaxing)
 .ARM.exidx     0x000000000011d8c4       0x70 C:\Users\Administrator\Furuta\Furuta\Furuta_Acados\Build\Furuta_Model\Compile\Furuta_Model\Furuta_Model.a(Furuta_Model.oarm)
                                         0x98 (size before relaxing)
 .ARM.exidx     0x000000000011d934       0x10 C:\Users\Administrator\Furuta\Furuta\Furuta_Acados\Build\Furuta_Model\Compile\Furuta_Model\Furuta_Model.a(Furuta_Model_dsrtvdf.oarm)
 .ARM.exidx     0x000000000011d944       0x10 C:\Users\Administrator\Furuta\Furuta\Furuta_Acados\Build\Furuta_Model\Compile\Furuta_Model\Furuta_Model.a(rt_nonfinite.oarm)
                                         0x28 (size before relaxing)
 .ARM.exidx     0x000000000011d954        0x8 C:\Users\Administrator\Furuta\Furuta\Furuta_Acados\Build\Furuta_Model\Compile\Furuta_Model\Furuta_Model.a(rt_zcfcn.oarm)
 .ARM.exidx     0x000000000011d95c       0x30 C:\Users\Administrator\Furuta\Furuta\Furuta_Acados\Build\Furuta_Model\Compile\Furuta_Model\Furuta_Model.a(acados_solver_sfunction_furuta.oarm)
 .ARM.exidx     0x000000000011d98c        0x8 C:\Users\Administrator\Furuta\Furuta\Furuta_Acados\Build\Furuta_Model\Compile\Furuta_Model\Furuta_Model.a(rtGetInf.oarm)
                                         0x20 (size before relaxing)
 .ARM.exidx     0x000000000011d994        0x0 C:\Users\Administrator\Furuta\Furuta\Furuta_Acados\Build\Furuta_Model\Compile\Furuta_Model\Furuta_Model.a(rtGetNaN.oarm)
                                         0x10 (size before relaxing)
 .ARM.exidx     0x000000000011d994       0xa8 C:\Users\Administrator\Furuta\Furuta\Furuta_Acados\Build\Furuta_Model\Compile\Furuta_Model\Furuta_Model.a(acados_solver_furuta.oarm)
                                         0xe8 (size before relaxing)
 .ARM.exidx     0x000000000011da3c       0x10 C:\Users\Administrator\Furuta\Furuta\Furuta_Acados\Build\Furuta_Model\Compile\Furuta_Model\Furuta_Model.a(furuta_expl_ode_fun.oarm)
                                         0x88 (size before relaxing)
 .ARM.exidx     0x000000000011da4c       0x18 C:\Users\Administrator\Furuta\Furuta\Furuta_Acados\Build\Furuta_Model\Compile\Furuta_Model\Furuta_Model.a(furuta_expl_vde_forw.oarm)
                                         0x88 (size before relaxing)
 .ARM.exidx     0x000000000011da64       0x18 c:/program files/dspace rcphil 2021-a/compiler/linux440_550/target/arm-linux-gnueabihf/bin/../lib\libc_nonshared.a(elf-init.oS)
                                         0x10 (size before relaxing)
                [!provide]                        PROVIDE (__exidx_end, .)

.eh_frame_hdr
 *(.eh_frame_hdr)
 *(.eh_frame_entry .eh_frame_entry.*)

.eh_frame       0x000000000011da7c        0x4
 *(.eh_frame)
 .eh_frame      0x000000000011da7c        0x4 c:/program files/dspace rcphil 2021-a/compiler/linux440_550/target/arm-linux-gnueabihf/bin/../lib/gcc/arm-linux-gnueabihf/5.5.0/crtend.o
 *(.eh_frame.*)

.gcc_except_table
 *(.gcc_except_table .gcc_except_table.*)

.gnu_extab
 *(.gnu_extab*)

.exception_ranges
 *(.exception_ranges .exception_ranges*)
                0x000000000012e000                . = DATA_SEGMENT_ALIGN (0x10000, 0x1000)

.eh_frame
 *(.eh_frame)
 *(.eh_frame.*)

.gnu_extab
 *(.gnu_extab)

.gcc_except_table
 *(.gcc_except_table .gcc_except_table.*)

.exception_ranges
 *(.exception_ranges .exception_ranges*)

.tdata
 *(.tdata .tdata.* .gnu.linkonce.td.*)

.tbss
 *(.tbss .tbss.* .gnu.linkonce.tb.*)
 *(.tcommon)

.preinit_array  0x000000000012e000        0x0
                [!provide]                        PROVIDE (__preinit_array_start, .)
 *(.preinit_array)
                [!provide]                        PROVIDE (__preinit_array_end, .)

.init_array     0x000000000012e000       0x14
                0x000000000012e000                PROVIDE (__init_array_start, .)
 *(SORT(.init_array.*))
 *(.init_array)
 .init_array    0x000000000012e000        0x4 c:/program files/dspace rcphil 2021-a/compiler/linux440_550/target/arm-linux-gnueabihf/bin/../lib/gcc/arm-linux-gnueabihf/5.5.0/crtbegin.o
 .init_array    0x000000000012e004        0x8 dssimengine_main.oarm
 .init_array    0x000000000012e00c        0x4 rtosal_simengineap.oarm
 .init_array    0x000000000012e010        0x4 IOCode_Data.oarm
                0x000000000012e014                PROVIDE (__init_array_end, .)

.fini_array     0x000000000012e014        0x4
                [!provide]                        PROVIDE (__fini_array_start, .)
 *(SORT(.fini_array.*))
 *(.fini_array)
 .fini_array    0x000000000012e014        0x4 c:/program files/dspace rcphil 2021-a/compiler/linux440_550/target/arm-linux-gnueabihf/bin/../lib/gcc/arm-linux-gnueabihf/5.5.0/crtbegin.o
                [!provide]                        PROVIDE (__fini_array_end, .)

.ctors
 *crtbegin.o(.ctors)
 *crtbegin?.o(.ctors)
 *(EXCLUDE_FILE(*crtend?.o *crtend.o) .ctors)
 *(SORT(.ctors.*))
 *(.ctors)

.dtors
 *crtbegin.o(.dtors)
 *crtbegin?.o(.dtors)
 *(EXCLUDE_FILE(*crtend?.o *crtend.o) .dtors)
 *(SORT(.dtors.*))
 *(.dtors)

.jcr            0x000000000012e018        0x4
 *(.jcr)
 .jcr           0x000000000012e018        0x0 c:/program files/dspace rcphil 2021-a/compiler/linux440_550/target/arm-linux-gnueabihf/bin/../lib/gcc/arm-linux-gnueabihf/5.5.0/crtbegin.o
 .jcr           0x000000000012e018        0x4 c:/program files/dspace rcphil 2021-a/compiler/linux440_550/target/arm-linux-gnueabihf/bin/../lib/gcc/arm-linux-gnueabihf/5.5.0/crtend.o

.data.rel.ro
 *(.data.rel.ro.local* .gnu.linkonce.d.rel.ro.local.*)
 *(.data.rel.ro .data.rel.ro.* .gnu.linkonce.d.rel.ro.*)

.dynamic        0x000000000012e01c      0x148
 *(.dynamic)
 .dynamic       0x000000000012e01c      0x148 c:/program files/dspace rcphil 2021-a/compiler/linux440_550/target/arm-linux-gnueabihf/bin/../lib/crt1.o
                0x000000000012e01c                _DYNAMIC
                0x000000000012e164                . = DATA_SEGMENT_RELRO_END (., 0x0)

.got            0x000000000012e164      0xac0
 *(.got.plt)
 .got.plt       0x000000000012e164      0x1b0 c:/program files/dspace rcphil 2021-a/compiler/linux440_550/target/arm-linux-gnueabihf/bin/../lib/crt1.o
                0x000000000012e164                _GLOBAL_OFFSET_TABLE_
 *(.igot.plt)
 .igot.plt      0x000000000012e314        0x0 c:/program files/dspace rcphil 2021-a/compiler/linux440_550/target/arm-linux-gnueabihf/bin/../lib/crt1.o
 *(.got)
 .got           0x000000000012e314      0x910 c:/program files/dspace rcphil 2021-a/compiler/linux440_550/target/arm-linux-gnueabihf/bin/../lib/crt1.o
 *(.igot)

.data           0x000000000012ec28      0x698
                [!provide]                        PROVIDE (__data_start, .)
 *(.data .data.* .gnu.linkonce.d.*)
 .data          0x000000000012ec28        0x4 c:/program files/dspace rcphil 2021-a/compiler/linux440_550/target/arm-linux-gnueabihf/bin/../lib/crt1.o
                0x000000000012ec28                __data_start
                0x000000000012ec28                data_start
 .data          0x000000000012ec2c        0x0 c:/program files/dspace rcphil 2021-a/compiler/linux440_550/target/arm-linux-gnueabihf/bin/../lib/crti.o
 .data          0x000000000012ec2c        0x4 c:/program files/dspace rcphil 2021-a/compiler/linux440_550/target/arm-linux-gnueabihf/bin/../lib/gcc/arm-linux-gnueabihf/5.5.0/crtbegin.o
                0x000000000012ec2c                __dso_handle
 .data          0x000000000012ec30        0x0 mdladapter_mdlfunctions.oarm
 .data          0x000000000012ec30        0x0 mdlCode_ap.oarm
 .data          0x000000000012ec30        0x0 data_in_ap.oarm
 .data          0x000000000012ec30        0x0 data_out_ap.oarm
 .data          0x000000000012ec30        0x0 fm_entry_ap.oarm
 .data          0x000000000012ec30        0x0 fm_exit_ap.oarm
 .data          0x000000000012ec30        0x1 dssimengine_accesspoint.oarm
                0x000000000012ec30                isFirstSimulation
 .data          0x000000000012ec31        0x0 dssimengine_api.oarm
 *fill*         0x000000000012ec31        0x3 
 .data          0x000000000012ec34       0x34 dssimengine_main.oarm
                0x000000000012ec34                SimEngineLastApplState
                0x000000000012ec38                ApplInfoDsCApplicationMain
                0x000000000012ec60                DsFwIfVersion
                0x000000000012ec64                DsApplIfVersion
 .data          0x000000000012ec68        0x0 rtosal_task.oarm
 .data          0x000000000012ec68        0x0 rtosal_taskap.oarm
 .data          0x000000000012ec68       0x10 rtosal_simengineap.oarm
                0x000000000012ec68                g_dsrtt_comm_enabled
                0x000000000012ec70                ScalingFactor
 .data          0x000000000012ec78       0x84 IOCode_Data.oarm
                0x000000000012ec78                g_ResourceMap
 .data          0x000000000012ecfc        0x0 dssimengine_accesspoint_Digital_Incremental_Encoder_In.oarm
 .data          0x000000000012ecfc        0x0 dssimengine_accesspoint_Voltage_In.oarm
 .data          0x000000000012ecfc        0x0 dssimengine_accesspoint_Voltage_Out.oarm
 .data          0x000000000012ecfc        0x0 C:\Users\Administrator\Furuta\Furuta\Furuta_Acados\Build\Furuta_Model\Compile\Furuta_Model\Furuta_Model.a(Furuta_Model_dsmpbap.oarm)
 .data          0x000000000012ecfc        0x0 C:\Users\Administrator\Furuta\Furuta\Furuta_Acados\Build\Furuta_Model\Compile\Furuta_Model\Furuta_Model.a(Furuta_Model_dsrtmdlfcn.oarm)
 .data          0x000000000012ecfc        0x0 C:\Users\Administrator\Furuta\Furuta\Furuta_Acados\Build\Furuta_Model\Compile\Furuta_Model\Furuta_Model.a(Furuta_Model_dsrttf.oarm)
 .data          0x000000000012ecfc        0x0 C:\Users\Administrator\Furuta\Furuta\Furuta_Acados\Build\Furuta_Model\Compile\Furuta_Model\Furuta_Model.a(Furuta_Model.oarm)
 *fill*         0x000000000012ecfc        0x4 
 .data          0x000000000012ed00      0x5c0 C:\Users\Administrator\Furuta\Furuta\Furuta_Acados\Build\Furuta_Model\Compile\Furuta_Model\Furuta_Model.a(Furuta_Model_data.oarm)
                0x000000000012ed00                Furuta_Model_P
 .data          0x000000000012f2c0        0x0 C:\Users\Administrator\Furuta\Furuta\Furuta_Acados\Build\Furuta_Model\Compile\Furuta_Model\Furuta_Model.a(Furuta_Model_dsrtvdf.oarm)
 .data          0x000000000012f2c0        0x0 C:\Users\Administrator\Furuta\Furuta\Furuta_Acados\Build\Furuta_Model\Compile\Furuta_Model\Furuta_Model.a(rt_nonfinite.oarm)
 .data          0x000000000012f2c0        0x0 C:\Users\Administrator\Furuta\Furuta\Furuta_Acados\Build\Furuta_Model\Compile\Furuta_Model\Furuta_Model.a(rt_zcfcn.oarm)
 .data          0x000000000012f2c0        0x0 C:\Users\Administrator\Furuta\Furuta\Furuta_Acados\Build\Furuta_Model\Compile\Furuta_Model\Furuta_Model.a(acados_solver_sfunction_furuta.oarm)
 .data          0x000000000012f2c0        0x0 C:\Users\Administrator\Furuta\Furuta\Furuta_Acados\Build\Furuta_Model\Compile\Furuta_Model\Furuta_Model.a(rtGetInf.oarm)
 .data          0x000000000012f2c0        0x0 C:\Users\Administrator\Furuta\Furuta\Furuta_Acados\Build\Furuta_Model\Compile\Furuta_Model\Furuta_Model.a(rtGetNaN.oarm)
 .data          0x000000000012f2c0        0x0 C:\Users\Administrator\Furuta\Furuta\Furuta_Acados\Build\Furuta_Model\Compile\Furuta_Model\Furuta_Model.a(acados_solver_furuta.oarm)
 .data          0x000000000012f2c0        0x0 C:\Users\Administrator\Furuta\Furuta\Furuta_Acados\Build\Furuta_Model\Compile\Furuta_Model\Furuta_Model.a(furuta_expl_ode_fun.oarm)
 .data          0x000000000012f2c0        0x0 C:\Users\Administrator\Furuta\Furuta\Furuta_Acados\Build\Furuta_Model\Compile\Furuta_Model\Furuta_Model.a(furuta_expl_vde_forw.oarm)
 .data          0x000000000012f2c0        0x0 C:\Users\Administrator\acados_neu\buildDS1403\install\lib\libacados.a(ocp_nlp_common.c.obj)
 .data          0x000000000012f2c0        0x0 C:\Users\Administrator\acados_neu\buildDS1403\install\lib\libacados.a(ocp_nlp_constraints_common.c.obj)
 .data          0x000000000012f2c0        0x0 C:\Users\Administrator\acados_neu\buildDS1403\install\lib\libacados.a(ocp_nlp_cost_common.c.obj)
 .data          0x000000000012f2c0        0x0 C:\Users\Administrator\acados_neu\buildDS1403\install\lib\libacados.a(ocp_nlp_dynamics_common.c.obj)
 .data          0x000000000012f2c0        0x0 C:\Users\Administrator\acados_neu\buildDS1403\install\lib\libacados.a(ocp_nlp_reg_common.c.obj)
 .data          0x000000000012f2c0        0x0 C:\Users\Administrator\acados_neu\buildDS1403\install\lib\libacados.a(ocp_qp_common.c.obj)
 .data          0x000000000012f2c0        0x0 C:\Users\Administrator\acados_neu\buildDS1403\install\lib\libacados.a(ocp_qp_xcond_solver.c.obj)
 .data          0x000000000012f2c0        0x0 C:\Users\Administrator\acados_neu\buildDS1403\install\lib\libacados.a(sim_common.c.obj)
 .data          0x000000000012f2c0        0x0 C:\Users\Administrator\acados_neu\buildDS1403\install\lib\libacados.a(math.c.obj)
 .data          0x000000000012f2c0        0x0 C:\Users\Administrator\acados_neu\buildDS1403\install\lib\libacados.a(mem.c.obj)
 .data          0x000000000012f2c0        0x0 C:\Users\Administrator\acados_neu\buildDS1403\install\lib\libacados.a(timing.c.obj)
 .data          0x000000000012f2c0        0x0 C:\Users\Administrator\acados_neu\buildDS1403\install\lib\libacados.a(external_function_interface.c.obj)
 .data          0x000000000012f2c0        0x0 C:\Users\Administrator\acados_neu\buildDS1403\install\lib\libacados.a(ocp_nlp_interface.c.obj)
 .data          0x000000000012f2c0        0x0 C:\Users\Administrator\acados_neu\buildDS1403\install\lib\libacados.a(ocp_qp_interface.c.obj)
 .data          0x000000000012f2c0        0x0 C:\Users\Administrator\acados_neu\buildDS1403\install\lib\libacados.a(dense_qp_hpipm.c.obj)
 .data          0x000000000012f2c0        0x0 C:\Users\Administrator\acados_neu\buildDS1403\install\lib\libacados.a(ocp_nlp_constraints_bgh.c.obj)
 .data          0x000000000012f2c0        0x0 C:\Users\Administrator\acados_neu\buildDS1403\install\lib\libacados.a(ocp_nlp_constraints_bgp.c.obj)
 .data          0x000000000012f2c0        0x0 C:\Users\Administrator\acados_neu\buildDS1403\install\lib\libacados.a(ocp_nlp_cost_conl.c.obj)
 .data          0x000000000012f2c0        0x0 C:\Users\Administrator\acados_neu\buildDS1403\install\lib\libacados.a(ocp_nlp_cost_external.c.obj)
 .data          0x000000000012f2c0        0x0 C:\Users\Administrator\acados_neu\buildDS1403\install\lib\libacados.a(ocp_nlp_cost_ls.c.obj)
 .data          0x000000000012f2c0        0x0 C:\Users\Administrator\acados_neu\buildDS1403\install\lib\libacados.a(ocp_nlp_cost_nls.c.obj)
 .data          0x000000000012f2c0        0x0 C:\Users\Administrator\acados_neu\buildDS1403\install\lib\libacados.a(ocp_nlp_dynamics_cont.c.obj)
 .data          0x000000000012f2c0        0x0 C:\Users\Administrator\acados_neu\buildDS1403\install\lib\libacados.a(ocp_nlp_dynamics_disc.c.obj)
 .data          0x000000000012f2c0        0x0 C:\Users\Administrator\acados_neu\buildDS1403\install\lib\libacados.a(ocp_nlp_reg_convexify.c.obj)
 .data          0x000000000012f2c0        0x0 C:\Users\Administrator\acados_neu\buildDS1403\install\lib\libacados.a(ocp_nlp_reg_mirror.c.obj)
 .data          0x000000000012f2c0        0x0 C:\Users\Administrator\acados_neu\buildDS1403\install\lib\libacados.a(ocp_nlp_reg_noreg.c.obj)
 .data          0x000000000012f2c0        0x0 C:\Users\Administrator\acados_neu\buildDS1403\install\lib\libacados.a(ocp_nlp_reg_project.c.obj)
 .data          0x000000000012f2c0        0x0 C:\Users\Administrator\acados_neu\buildDS1403\install\lib\libacados.a(ocp_nlp_reg_project_reduc_hess.c.obj)
 .data          0x000000000012f2c0        0x0 C:\Users\Administrator\acados_neu\buildDS1403\install\lib\libacados.a(ocp_nlp_sqp.c.obj)
 .data          0x000000000012f2c0        0x0 C:\Users\Administrator\acados_neu\buildDS1403\install\lib\libacados.a(ocp_nlp_sqp_rti.c.obj)
 .data          0x000000000012f2c0        0x0 C:\Users\Administrator\acados_neu\buildDS1403\install\lib\libacados.a(ocp_qp_full_condensing.c.obj)
 .data          0x000000000012f2c0        0x0 C:\Users\Administrator\acados_neu\buildDS1403\install\lib\libacados.a(ocp_qp_hpipm.c.obj)
 .data          0x000000000012f2c0        0x0 C:\Users\Administrator\acados_neu\buildDS1403\install\lib\libacados.a(ocp_qp_partial_condensing.c.obj)
 .data          0x000000000012f2c0        0x0 C:\Users\Administrator\acados_neu\buildDS1403\install\lib\libacados.a(sim_erk_integrator.c.obj)
 .data          0x000000000012f2c0        0x0 C:\Users\Administrator\acados_neu\buildDS1403\install\lib\libacados.a(sim_gnsf.c.obj)
 .data          0x000000000012f2c0        0x0 C:\Users\Administrator\acados_neu\buildDS1403\install\lib\libacados.a(sim_irk_integrator.c.obj)
 .data          0x000000000012f2c0        0x0 C:\Users\Administrator\acados_neu\buildDS1403\install\lib\libacados.a(sim_lifted_irk_integrator.c.obj)
 .data          0x000000000012f2c0        0x0 C:\Users\Administrator\acados_neu\buildDS1403\install\lib\libacados.a(external_function_generic.c.obj)
 .data          0x000000000012f2c0        0x0 C:\Users\Administrator\acados_neu\buildDS1403\install\lib\libacados.a(print.c.obj)
 .data          0x000000000012f2c0        0x0 C:\Users\Administrator\acados_neu\buildDS1403\install\lib\libacados.a(sim_interface.c.obj)
 .data          0x000000000012f2c0        0x0 C:\Users\Administrator\acados_neu\buildDS1403\install\lib\libacados.a(dense_qp_common.c.obj)
 .data          0x000000000012f2c0        0x0 C:\Users\Administrator\acados_neu\buildDS1403\install\lib\libacados.a(sim_collocation_utils.c.obj)
 .data          0x000000000012f2c0        0x0 C:\Users\Administrator\acados_neu\buildDS1403\install\lib\libblasfeo.a(d_aux_lib4.c.obj)
 .data          0x000000000012f2c0        0x0 C:\Users\Administrator\acados_neu\buildDS1403\install\lib\libblasfeo.a(d_blas1_lib4.c.obj)
 .data          0x000000000012f2c0        0x0 C:\Users\Administrator\acados_neu\buildDS1403\install\lib\libblasfeo.a(d_blas2_lib4.c.obj)
 .data          0x000000000012f2c0        0x0 C:\Users\Administrator\acados_neu\buildDS1403\install\lib\libblasfeo.a(d_blas3_diag_lib4.c.obj)
 .data          0x000000000012f2c0        0x0 C:\Users\Administrator\acados_neu\buildDS1403\install\lib\libblasfeo.a(d_blas3_lib4.c.obj)
 .data          0x000000000012f2c0        0x0 C:\Users\Administrator\acados_neu\buildDS1403\install\lib\libblasfeo.a(d_lapack_lib4.c.obj)
 .data          0x000000000012f2c0        0x0 C:\Users\Administrator\acados_neu\buildDS1403\install\lib\libblasfeo.a(d_aux_ref.c.obj)
 .data          0x000000000012f2c0        0x0 C:\Users\Administrator\acados_neu\buildDS1403\install\lib\libblasfeo.a(d_blas2_ref.c.obj)
 .data          0x000000000012f2c0        0x0 C:\Users\Administrator\acados_neu\buildDS1403\install\lib\libblasfeo.a(d_blas3_diag_ref.c.obj)
 .data          0x000000000012f2c0        0x0 C:\Users\Administrator\acados_neu\buildDS1403\install\lib\libblasfeo.a(d_blas3_ref.c.obj)
 .data          0x000000000012f2c0        0x0 C:\Users\Administrator\acados_neu\buildDS1403\install\lib\libblasfeo.a(d_lapack_ref.c.obj)
 .data          0x000000000012f2c0        0x0 C:\Users\Administrator\acados_neu\buildDS1403\install\lib\libblasfeo.a(kernel_align_generic.c.obj)
 .data          0x000000000012f2c0        0x0 C:\Users\Administrator\acados_neu\buildDS1403\install\lib\libblasfeo.a(kernel_d_aux_lib.c.obj)
 .data          0x000000000012f2c0        0x0 C:\Users\Administrator\acados_neu\buildDS1403\install\lib\libblasfeo.a(kernel_dgecp_lib4.c.obj)
 .data          0x000000000012f2c0        0x0 C:\Users\Administrator\acados_neu\buildDS1403\install\lib\libblasfeo.a(kernel_dgemm_4x4_lib4.c.obj)
 .data          0x000000000012f2c0        0x0 C:\Users\Administrator\acados_neu\buildDS1403\install\lib\libblasfeo.a(kernel_dgemm_diag_lib4.c.obj)
 .data          0x000000000012f2c0        0x0 C:\Users\Administrator\acados_neu\buildDS1403\install\lib\libblasfeo.a(kernel_dgemv_4_lib4.c.obj)
 .data          0x000000000012f2c0        0x0 C:\Users\Administrator\acados_neu\buildDS1403\install\lib\libblasfeo.a(kernel_dgeqrf_4_lib4.c.obj)
 .data          0x000000000012f2c0        0x0 C:\Users\Administrator\acados_neu\buildDS1403\install\lib\libblasfeo.a(kernel_dgetr_lib4.c.obj)
 .data          0x000000000012f2c0        0x0 C:\Users\Administrator\acados_neu\buildDS1403\install\lib\libblasfeo.a(kernel_dgetrf_pivot_lib4.c.obj)
 .data          0x000000000012f2c0        0x0 C:\Users\Administrator\acados_neu\buildDS1403\install\lib\libblasfeo.a(kernel_dpack_lib4.c.obj)
 .data          0x000000000012f2c0        0x0 C:\Users\Administrator\acados_neu\buildDS1403\install\lib\libblasfeo.a(kernel_dsymv_4_lib4.c.obj)
 .data          0x000000000012f2c0        0x0 C:\Users\Administrator\acados_neu\buildDS1403\install\lib\libhpipm.a(d_cond.c.obj)
 .data          0x000000000012f2c0        0x0 C:\Users\Administrator\acados_neu\buildDS1403\install\lib\libhpipm.a(d_cond_aux.c.obj)
 .data          0x000000000012f2c0        0x0 C:\Users\Administrator\acados_neu\buildDS1403\install\lib\libhpipm.a(d_part_cond.c.obj)
 .data          0x000000000012f2c0        0x0 C:\Users\Administrator\acados_neu\buildDS1403\install\lib\libhpipm.a(d_dense_qp.c.obj)
 .data          0x000000000012f2c0        0x0 C:\Users\Administrator\acados_neu\buildDS1403\install\lib\libhpipm.a(d_dense_qp_dim.c.obj)
 .data          0x000000000012f2c0        0x0 C:\Users\Administrator\acados_neu\buildDS1403\install\lib\libhpipm.a(d_dense_qp_ipm.c.obj)
 .data          0x000000000012f2c0        0x0 C:\Users\Administrator\acados_neu\buildDS1403\install\lib\libhpipm.a(d_dense_qp_kkt.c.obj)
 .data          0x000000000012f2c0        0x0 C:\Users\Administrator\acados_neu\buildDS1403\install\lib\libhpipm.a(d_dense_qp_res.c.obj)
 .data          0x000000000012f2c0        0x0 C:\Users\Administrator\acados_neu\buildDS1403\install\lib\libhpipm.a(d_dense_qp_sol.c.obj)
 .data          0x000000000012f2c0        0x0 C:\Users\Administrator\acados_neu\buildDS1403\install\lib\libhpipm.a(d_core_qp_ipm.c.obj)
 .data          0x000000000012f2c0        0x0 C:\Users\Administrator\acados_neu\buildDS1403\install\lib\libhpipm.a(d_core_qp_ipm_aux.c.obj)
 .data          0x000000000012f2c0        0x0 C:\Users\Administrator\acados_neu\buildDS1403\install\lib\libhpipm.a(d_ocp_qp.c.obj)
 .data          0x000000000012f2c0        0x0 C:\Users\Administrator\acados_neu\buildDS1403\install\lib\libhpipm.a(d_ocp_qp_dim.c.obj)
 .data          0x000000000012f2c0        0x0 C:\Users\Administrator\acados_neu\buildDS1403\install\lib\libhpipm.a(d_ocp_qp_ipm.c.obj)
 .data          0x000000000012f2c0        0x0 C:\Users\Administrator\acados_neu\buildDS1403\install\lib\libhpipm.a(d_ocp_qp_kkt.c.obj)
 .data          0x000000000012f2c0        0x0 C:\Users\Administrator\acados_neu\buildDS1403\install\lib\libhpipm.a(d_ocp_qp_red.c.obj)
 .data          0x000000000012f2c0        0x0 C:\Users\Administrator\acados_neu\buildDS1403\install\lib\libhpipm.a(d_ocp_qp_res.c.obj)
 .data          0x000000000012f2c0        0x0 C:\Users\Administrator\acados_neu\buildDS1403\install\lib\libhpipm.a(d_ocp_qp_sol.c.obj)
 .data          0x000000000012f2c0        0x0 C:\Users\Administrator\acados_neu\buildDS1403\install\lib\libhpipm.a(aux_mem.c.obj)
 .data          0x000000000012f2c0        0x0 C:\Users\Administrator\acados_neu\buildDS1403\install\lib\libhpipm.a(aux_string.c.obj)
 .data          0x000000000012f2c0        0x0 C:\Users\Administrator\acados_neu\buildDS1403\install\lib\libblasfeo.a(d_blas2_diag_lib.c.obj)
 .data          0x000000000012f2c0        0x0 c:/program files/dspace rcphil 2021-a/compiler/linux440_550/target/arm-linux-gnueabihf/bin/../lib\libc_nonshared.a(elf-init.oS)
 .data          0x000000000012f2c0        0x0 c:/program files/dspace rcphil 2021-a/compiler/linux440_550/target/arm-linux-gnueabihf/bin/../lib/gcc/arm-linux-gnueabihf/5.5.0/crtend.o
 .data          0x000000000012f2c0        0x0 c:/program files/dspace rcphil 2021-a/compiler/linux440_550/target/arm-linux-gnueabihf/bin/../lib/crtn.o

.tm_clone_table
                0x000000000012f2c0        0x0
 .tm_clone_table
                0x000000000012f2c0        0x0 c:/program files/dspace rcphil 2021-a/compiler/linux440_550/target/arm-linux-gnueabihf/bin/../lib/gcc/arm-linux-gnueabihf/5.5.0/crtbegin.o
 .tm_clone_table
                0x000000000012f2c0        0x0 c:/program files/dspace rcphil 2021-a/compiler/linux440_550/target/arm-linux-gnueabihf/bin/../lib/gcc/arm-linux-gnueabihf/5.5.0/crtend.o

.data1
 *(.data1)
                0x000000000012f2c0                _edata = .
                [!provide]                        PROVIDE (edata, .)
                0x000000000012f2c0                . = .
                0x000000000012f2c0                __bss_start = .
                0x000000000012f2c0                __bss_start__ = .

.bss            0x000000000012f2c0     0x27ec
 *(.dynbss)
 .dynbss        0x000000000012f2c0       0x44 c:/program files/dspace rcphil 2021-a/compiler/linux440_550/target/arm-linux-gnueabihf/bin/../lib/crt1.o
                0x000000000012f2c0                typeinfo for DsCApplication
                0x000000000012f2c8                stderr@@GLIBC_2.4
                0x000000000012f2d0                typeinfo for DsCTask
                0x000000000012f2d8                vtable for __cxxabiv1::__si_class_type_info@@CXXABI_1.3
 *(.bss .bss.* .gnu.linkonce.b.*)
 .bss           0x000000000012f304        0x0 c:/program files/dspace rcphil 2021-a/compiler/linux440_550/target/arm-linux-gnueabihf/bin/../lib/crt1.o
 .bss           0x000000000012f304        0x0 c:/program files/dspace rcphil 2021-a/compiler/linux440_550/target/arm-linux-gnueabihf/bin/../lib/crti.o
 .bss           0x000000000012f304        0x1 c:/program files/dspace rcphil 2021-a/compiler/linux440_550/target/arm-linux-gnueabihf/bin/../lib/gcc/arm-linux-gnueabihf/5.5.0/crtbegin.o
 .bss           0x000000000012f305        0x0 mdladapter_mdlfunctions.oarm
 .bss           0x000000000012f305        0x0 mdlCode_ap.oarm
 .bss           0x000000000012f305        0x0 data_in_ap.oarm
 .bss           0x000000000012f305        0x0 data_out_ap.oarm
 .bss           0x000000000012f305        0x0 fm_entry_ap.oarm
 .bss           0x000000000012f305        0x0 fm_exit_ap.oarm
 *fill*         0x000000000012f305        0x3 
 .bss           0x000000000012f308       0x30 dssimengine_accesspoint.oarm
                0x000000000012f308                pFuseActualStatus
                0x000000000012f30c                pFuseRestoreRequest
                0x000000000012f310                pFailureSimulationClientConnected
                0x000000000012f314                pFailureSimulationFailureConfigured
                0x000000000012f318                pFailureSimulationFailureActivated
                0x000000000012f31c                pFailureSimulationSequenceCount
                0x000000000012f320                pFailureSimulationRelaySwitching
                0x000000000012f324                pXilApiEesPortActiveErrorSet
                0x000000000012f328                pXilApiEesPortErrorActivated
                0x000000000012f32c                pXilApiEesPortErrorSwitching
                0x000000000012f330                xilApiEesPortFlags
                0x000000000012f334                xilApiEesPortTrigger
 .bss           0x000000000012f338        0x0 dssimengine_api.oarm
 .bss           0x000000000012f338        0x8 dssimengine_main.oarm
                0x000000000012f338                ErrorList
                0x000000000012f33c                DsCApplicationMain::s_pInstance
 .bss           0x000000000012f340       0x4c rtosal_task.oarm
                0x000000000012f340                pRtosAlPeriodic_Task_1
                0x000000000012f344                DsCRtosAlTask_iAsynchronous_Function_::m_pInstance
                0x000000000012f348                DsCRtosAlPeriodic_Task_1::m_pInstance
                0x000000000012f34c                DsCRtosAlAcadosSourceTask::m_pInstance
                0x000000000012f350                DsCRtosAlAcadosTrigger::m_pInstance
                0x000000000012f358                StepCounter_AcadosSourceTask
                0x000000000012f360                RtosAlTaskSimTime_AcadosSourceTask
                0x000000000012f368                StepCounter_Periodic_Task_1
                0x000000000012f370                RtosAlTaskSimTime_Periodic_Task_1
                0x000000000012f378                pRtosAlTimer_AcadosSourceTask
                0x000000000012f37c                pRtosAlTimer_Periodic_Task_1
                0x000000000012f380                pRtosAlTask_iAsynchronous_Function_
                0x000000000012f384                pRtosAlAcadosTrigger
                0x000000000012f388                pRtosAlAcadosSourceTask
 .bss           0x000000000012f38c        0x0 rtosal_taskap.oarm
 *fill*         0x000000000012f38c        0x4 
 .bss           0x000000000012f390      0x148 rtosal_simengineap.oarm
                0x000000000012f390                Periodic_Task_1Vars_OvnCounter
                0x000000000012f390                Periodic_Task_1Vars
                0x000000000012f398                Periodic_Task_1Vars_TurnaroundTime
                0x000000000012f3a0                Periodic_Task_1Vars_Calls
                0x000000000012f3a8                Periodic_Task_1Vars_QueueCounter
                0x000000000012f3b0                Periodic_Task_1Vars_AbsoluteTime
                0x000000000012f3e0                AcadosSourceTaskVars_OvnCounter
                0x000000000012f3e0                AcadosSourceTaskVars
                0x000000000012f3e8                AcadosSourceTaskVars_TurnaroundTime
                0x000000000012f3f0                AcadosSourceTaskVars_Calls
                0x000000000012f3f8                AcadosSourceTaskVars_QueueCounter
                0x000000000012f400                AcadosSourceTaskVars_AbsoluteTime
                0x000000000012f430                AcadosTriggerVars_OvnCounter
                0x000000000012f430                AcadosTriggerVars
                0x000000000012f438                AcadosTriggerVars_TurnaroundTime
                0x000000000012f440                AcadosTriggerVars_Calls
                0x000000000012f448                AcadosTriggerVars_QueueCounter
                0x000000000012f450                AcadosTriggerVars_AbsoluteTime
                0x000000000012f480                Task_iAsynchronous_Function_Vars
                0x000000000012f480                Task_iAsynchronous_Function_Vars_OvnCounter
                0x000000000012f488                Task_iAsynchronous_Function_Vars_TurnaroundTime
                0x000000000012f490                Task_iAsynchronous_Function_Vars_Calls
                0x000000000012f498                Task_iAsynchronous_Function_Vars_QueueCounter
                0x000000000012f4a0                Task_iAsynchronous_Function_Vars_AbsoluteTime
                0x000000000012f4d0                ScaledTimeInterval
 .bss           0x000000000012f4d8       0x60 IOCode_Data.oarm
                0x000000000012f4d8                furuta_model_fcnModule_SIDS8_TIDtriggered
                0x000000000012f4dc                furuta_model_fcnModule_SIDS7_TIDtriggered
                0x000000000012f4e0                furuta_model_fcnModule_SIDRoot_TID1
                0x000000000012f4e4                pVoltage_Out_1_DriverHandle
                0x000000000012f4e8                pVoltage_In_1_DriverHandle
                0x000000000012f4ec                digital_Incremental_Encoder_In_2_Polarity
                0x000000000012f4f0                digital_Incremental_Encoder_In_2_Threshold
                0x000000000012f4f8                digital_Incremental_Encoder_In_2_MinimumPulseDuration
                0x000000000012f500                digital_Incremental_Encoder_In_2_Timeout
                0x000000000012f508                digital_Incremental_Encoder_In_2_MeasurementMode
                0x000000000012f50c                pDigital_Incremental_Encoder_In_2_DriverHandle
                0x000000000012f510                digital_Incremental_Encoder_In_1_Polarity
                0x000000000012f518                digital_Incremental_Encoder_In_1_Threshold
                0x000000000012f520                digital_Incremental_Encoder_In_1_MinimumPulseDuration
                0x000000000012f528                digital_Incremental_Encoder_In_1_Timeout
                0x000000000012f530                digital_Incremental_Encoder_In_1_MeasurementMode
                0x000000000012f534                pDigital_Incremental_Encoder_In_1_DriverHandle
 .bss           0x000000000012f538        0x0 dssimengine_accesspoint_Digital_Incremental_Encoder_In.oarm
 .bss           0x000000000012f538        0x0 dssimengine_accesspoint_Voltage_In.oarm
 .bss           0x000000000012f538        0x0 dssimengine_accesspoint_Voltage_Out.oarm
 .bss           0x000000000012f538        0x0 C:\Users\Administrator\Furuta\Furuta\Furuta_Acados\Build\Furuta_Model\Compile\Furuta_Model\Furuta_Model.a(Furuta_Model_dsmpbap.oarm)
 .bss           0x000000000012f538        0x4 C:\Users\Administrator\Furuta\Furuta\Furuta_Acados\Build\Furuta_Model\Compile\Furuta_Model\Furuta_Model.a(Furuta_Model_dsrtmdlfcn.oarm)
                0x000000000012f538                DSRTStopSimulation
 .bss           0x000000000012f53c        0x0 C:\Users\Administrator\Furuta\Furuta\Furuta_Acados\Build\Furuta_Model\Compile\Furuta_Model\Furuta_Model.a(Furuta_Model_dsrttf.oarm)
 *fill*         0x000000000012f53c        0x4 
 .bss           0x000000000012f540     0x24fc C:\Users\Administrator\Furuta\Furuta\Furuta_Acados\Build\Furuta_Model\Compile\Furuta_Model\Furuta_Model.a(Furuta_Model.oarm)
                0x000000000012f540                Furuta_Model_DW
                0x000000000012fbe0                Furuta_Model_B
                0x0000000000131a20                Furuta_Model_X
                0x0000000000131a38                Furuta_Model_PrevZCX
 .bss           0x0000000000131a3c        0x0 C:\Users\Administrator\Furuta\Furuta\Furuta_Acados\Build\Furuta_Model\Compile\Furuta_Model\Furuta_Model.a(Furuta_Model_data.oarm)
 .bss           0x0000000000131a3c       0x40 C:\Users\Administrator\Furuta\Furuta\Furuta_Acados\Build\Furuta_Model\Compile\Furuta_Model\Furuta_Model.a(Furuta_Model_dsrtvdf.oarm)
                0x0000000000131a3c                p_0_Furuta_Model_real_T_0
                0x0000000000131a40                p_0_Furuta_Model_real_T_1
                0x0000000000131a44                p_0_Furuta_Model_real_T_2
                0x0000000000131a48                p_0_Furuta_Model_real_T_3
                0x0000000000131a4c                p_0_Furuta_Model_real_T_4
                0x0000000000131a50                p_0_Furuta_Model_real_T_5
                0x0000000000131a54                p_1_Furuta_Model_real_T_0
                0x0000000000131a58                p_2_Furuta_Model_real_T_0
                0x0000000000131a5c                p_2_Furuta_Model_int32_T_2
                0x0000000000131a60                p_2_Furuta_Model_int8_T_3
                0x0000000000131a64                p_2_Furuta_Model_boolean_T_4
                0x0000000000131a68                p_2_Furuta_Model_real_T_5
                0x0000000000131a6c                p_2_Furuta_Model_boolean_T_6
                0x0000000000131a70                p_2_Furuta_Model_real_T_7
                0x0000000000131a74                p_2_Furuta_Model_boolean_T_8
                0x0000000000131a78                p_3_Furuta_Model_real_T_0
 *fill*         0x0000000000131a7c        0x4 
 .bss           0x0000000000131a80       0x2c C:\Users\Administrator\Furuta\Furuta\Furuta_Acados\Build\Furuta_Model\Compile\Furuta_Model\Furuta_Model.a(rt_nonfinite.oarm)
                0x0000000000131a80                rtNaN
                0x0000000000131a88                rtNaNF
                0x0000000000131a90                rtInf
                0x0000000000131a98                rtInfF
                0x0000000000131aa0                rtMinusInf
                0x0000000000131aa8                rtMinusInfF
 .bss           0x0000000000131aac        0x0 C:\Users\Administrator\Furuta\Furuta\Furuta_Acados\Build\Furuta_Model\Compile\Furuta_Model\Furuta_Model.a(rt_zcfcn.oarm)
 .bss           0x0000000000131aac        0x0 C:\Users\Administrator\Furuta\Furuta\Furuta_Acados\Build\Furuta_Model\Compile\Furuta_Model\Furuta_Model.a(acados_solver_sfunction_furuta.oarm)
 .bss           0x0000000000131aac        0x0 C:\Users\Administrator\Furuta\Furuta\Furuta_Acados\Build\Furuta_Model\Compile\Furuta_Model\Furuta_Model.a(rtGetInf.oarm)
 .bss           0x0000000000131aac        0x0 C:\Users\Administrator\Furuta\Furuta\Furuta_Acados\Build\Furuta_Model\Compile\Furuta_Model\Furuta_Model.a(rtGetNaN.oarm)
 .bss           0x0000000000131aac        0x0 C:\Users\Administrator\Furuta\Furuta\Furuta_Acados\Build\Furuta_Model\Compile\Furuta_Model\Furuta_Model.a(acados_solver_furuta.oarm)
 .bss           0x0000000000131aac        0x0 C:\Users\Administrator\Furuta\Furuta\Furuta_Acados\Build\Furuta_Model\Compile\Furuta_Model\Furuta_Model.a(furuta_expl_ode_fun.oarm)
 .bss           0x0000000000131aac        0x0 C:\Users\Administrator\Furuta\Furuta\Furuta_Acados\Build\Furuta_Model\Compile\Furuta_Model\Furuta_Model.a(furuta_expl_vde_forw.oarm)
 .bss           0x0000000000131aac        0x0 C:\Users\Administrator\acados_neu\buildDS1403\install\lib\libacados.a(ocp_nlp_common.c.obj)
 .bss           0x0000000000131aac        0x0 C:\Users\Administrator\acados_neu\buildDS1403\install\lib\libacados.a(ocp_nlp_constraints_common.c.obj)
 .bss           0x0000000000131aac        0x0 C:\Users\Administrator\acados_neu\buildDS1403\install\lib\libacados.a(ocp_nlp_cost_common.c.obj)
 .bss           0x0000000000131aac        0x0 C:\Users\Administrator\acados_neu\buildDS1403\install\lib\libacados.a(ocp_nlp_dynamics_common.c.obj)
 .bss           0x0000000000131aac        0x0 C:\Users\Administrator\acados_neu\buildDS1403\install\lib\libacados.a(ocp_nlp_reg_common.c.obj)
 .bss           0x0000000000131aac        0x0 C:\Users\Administrator\acados_neu\buildDS1403\install\lib\libacados.a(ocp_qp_common.c.obj)
 .bss           0x0000000000131aac        0x0 C:\Users\Administrator\acados_neu\buildDS1403\install\lib\libacados.a(ocp_qp_xcond_solver.c.obj)
 .bss           0x0000000000131aac        0x0 C:\Users\Administrator\acados_neu\buildDS1403\install\lib\libacados.a(sim_common.c.obj)
 .bss           0x0000000000131aac        0x0 C:\Users\Administrator\acados_neu\buildDS1403\install\lib\libacados.a(math.c.obj)
 .bss           0x0000000000131aac        0x0 C:\Users\Administrator\acados_neu\buildDS1403\install\lib\libacados.a(mem.c.obj)
 .bss           0x0000000000131aac        0x0 C:\Users\Administrator\acados_neu\buildDS1403\install\lib\libacados.a(timing.c.obj)
 .bss           0x0000000000131aac        0x0 C:\Users\Administrator\acados_neu\buildDS1403\install\lib\libacados.a(external_function_interface.c.obj)
 .bss           0x0000000000131aac        0x0 C:\Users\Administrator\acados_neu\buildDS1403\install\lib\libacados.a(ocp_nlp_interface.c.obj)
 .bss           0x0000000000131aac        0x0 C:\Users\Administrator\acados_neu\buildDS1403\install\lib\libacados.a(ocp_qp_interface.c.obj)
 .bss           0x0000000000131aac        0x0 C:\Users\Administrator\acados_neu\buildDS1403\install\lib\libacados.a(dense_qp_hpipm.c.obj)
 .bss           0x0000000000131aac        0x0 C:\Users\Administrator\acados_neu\buildDS1403\install\lib\libacados.a(ocp_nlp_constraints_bgh.c.obj)
 .bss           0x0000000000131aac        0x0 C:\Users\Administrator\acados_neu\buildDS1403\install\lib\libacados.a(ocp_nlp_constraints_bgp.c.obj)
 .bss           0x0000000000131aac        0x0 C:\Users\Administrator\acados_neu\buildDS1403\install\lib\libacados.a(ocp_nlp_cost_conl.c.obj)
 .bss           0x0000000000131aac        0x0 C:\Users\Administrator\acados_neu\buildDS1403\install\lib\libacados.a(ocp_nlp_cost_external.c.obj)
 .bss           0x0000000000131aac        0x0 C:\Users\Administrator\acados_neu\buildDS1403\install\lib\libacados.a(ocp_nlp_cost_ls.c.obj)
 .bss           0x0000000000131aac        0x0 C:\Users\Administrator\acados_neu\buildDS1403\install\lib\libacados.a(ocp_nlp_cost_nls.c.obj)
 .bss           0x0000000000131aac        0x0 C:\Users\Administrator\acados_neu\buildDS1403\install\lib\libacados.a(ocp_nlp_dynamics_cont.c.obj)
 .bss           0x0000000000131aac        0x0 C:\Users\Administrator\acados_neu\buildDS1403\install\lib\libacados.a(ocp_nlp_dynamics_disc.c.obj)
 .bss           0x0000000000131aac        0x0 C:\Users\Administrator\acados_neu\buildDS1403\install\lib\libacados.a(ocp_nlp_reg_convexify.c.obj)
 .bss           0x0000000000131aac        0x0 C:\Users\Administrator\acados_neu\buildDS1403\install\lib\libacados.a(ocp_nlp_reg_mirror.c.obj)
 .bss           0x0000000000131aac        0x0 C:\Users\Administrator\acados_neu\buildDS1403\install\lib\libacados.a(ocp_nlp_reg_noreg.c.obj)
 .bss           0x0000000000131aac        0x0 C:\Users\Administrator\acados_neu\buildDS1403\install\lib\libacados.a(ocp_nlp_reg_project.c.obj)
 .bss           0x0000000000131aac        0x0 C:\Users\Administrator\acados_neu\buildDS1403\install\lib\libacados.a(ocp_nlp_reg_project_reduc_hess.c.obj)
 .bss           0x0000000000131aac        0x0 C:\Users\Administrator\acados_neu\buildDS1403\install\lib\libacados.a(ocp_nlp_sqp.c.obj)
 .bss           0x0000000000131aac        0x0 C:\Users\Administrator\acados_neu\buildDS1403\install\lib\libacados.a(ocp_nlp_sqp_rti.c.obj)
 .bss           0x0000000000131aac        0x0 C:\Users\Administrator\acados_neu\buildDS1403\install\lib\libacados.a(ocp_qp_full_condensing.c.obj)
 .bss           0x0000000000131aac        0x0 C:\Users\Administrator\acados_neu\buildDS1403\install\lib\libacados.a(ocp_qp_hpipm.c.obj)
 .bss           0x0000000000131aac        0x0 C:\Users\Administrator\acados_neu\buildDS1403\install\lib\libacados.a(ocp_qp_partial_condensing.c.obj)
 .bss           0x0000000000131aac        0x0 C:\Users\Administrator\acados_neu\buildDS1403\install\lib\libacados.a(sim_erk_integrator.c.obj)
 .bss           0x0000000000131aac        0x0 C:\Users\Administrator\acados_neu\buildDS1403\install\lib\libacados.a(sim_gnsf.c.obj)
 .bss           0x0000000000131aac        0x0 C:\Users\Administrator\acados_neu\buildDS1403\install\lib\libacados.a(sim_irk_integrator.c.obj)
 .bss           0x0000000000131aac        0x0 C:\Users\Administrator\acados_neu\buildDS1403\install\lib\libacados.a(sim_lifted_irk_integrator.c.obj)
 .bss           0x0000000000131aac        0x0 C:\Users\Administrator\acados_neu\buildDS1403\install\lib\libacados.a(external_function_generic.c.obj)
 .bss           0x0000000000131aac        0x0 C:\Users\Administrator\acados_neu\buildDS1403\install\lib\libacados.a(print.c.obj)
 .bss           0x0000000000131aac        0x0 C:\Users\Administrator\acados_neu\buildDS1403\install\lib\libacados.a(sim_interface.c.obj)
 .bss           0x0000000000131aac        0x0 C:\Users\Administrator\acados_neu\buildDS1403\install\lib\libacados.a(dense_qp_common.c.obj)
 .bss           0x0000000000131aac        0x0 C:\Users\Administrator\acados_neu\buildDS1403\install\lib\libacados.a(sim_collocation_utils.c.obj)
 .bss           0x0000000000131aac        0x0 C:\Users\Administrator\acados_neu\buildDS1403\install\lib\libblasfeo.a(d_aux_lib4.c.obj)
 .bss           0x0000000000131aac        0x0 C:\Users\Administrator\acados_neu\buildDS1403\install\lib\libblasfeo.a(d_blas1_lib4.c.obj)
 .bss           0x0000000000131aac        0x0 C:\Users\Administrator\acados_neu\buildDS1403\install\lib\libblasfeo.a(d_blas2_lib4.c.obj)
 .bss           0x0000000000131aac        0x0 C:\Users\Administrator\acados_neu\buildDS1403\install\lib\libblasfeo.a(d_blas3_diag_lib4.c.obj)
 .bss           0x0000000000131aac        0x0 C:\Users\Administrator\acados_neu\buildDS1403\install\lib\libblasfeo.a(d_blas3_lib4.c.obj)
 .bss           0x0000000000131aac        0x0 C:\Users\Administrator\acados_neu\buildDS1403\install\lib\libblasfeo.a(d_lapack_lib4.c.obj)
 .bss           0x0000000000131aac        0x0 C:\Users\Administrator\acados_neu\buildDS1403\install\lib\libblasfeo.a(d_aux_ref.c.obj)
 .bss           0x0000000000131aac        0x0 C:\Users\Administrator\acados_neu\buildDS1403\install\lib\libblasfeo.a(d_blas2_ref.c.obj)
 .bss           0x0000000000131aac        0x0 C:\Users\Administrator\acados_neu\buildDS1403\install\lib\libblasfeo.a(d_blas3_diag_ref.c.obj)
 .bss           0x0000000000131aac        0x0 C:\Users\Administrator\acados_neu\buildDS1403\install\lib\libblasfeo.a(d_blas3_ref.c.obj)
 .bss           0x0000000000131aac        0x0 C:\Users\Administrator\acados_neu\buildDS1403\install\lib\libblasfeo.a(d_lapack_ref.c.obj)
 .bss           0x0000000000131aac        0x0 C:\Users\Administrator\acados_neu\buildDS1403\install\lib\libblasfeo.a(kernel_align_generic.c.obj)
 .bss           0x0000000000131aac        0x0 C:\Users\Administrator\acados_neu\buildDS1403\install\lib\libblasfeo.a(kernel_d_aux_lib.c.obj)
 .bss           0x0000000000131aac        0x0 C:\Users\Administrator\acados_neu\buildDS1403\install\lib\libblasfeo.a(kernel_dgecp_lib4.c.obj)
 .bss           0x0000000000131aac        0x0 C:\Users\Administrator\acados_neu\buildDS1403\install\lib\libblasfeo.a(kernel_dgemm_4x4_lib4.c.obj)
 .bss           0x0000000000131aac        0x0 C:\Users\Administrator\acados_neu\buildDS1403\install\lib\libblasfeo.a(kernel_dgemm_diag_lib4.c.obj)
 .bss           0x0000000000131aac        0x0 C:\Users\Administrator\acados_neu\buildDS1403\install\lib\libblasfeo.a(kernel_dgemv_4_lib4.c.obj)
 .bss           0x0000000000131aac        0x0 C:\Users\Administrator\acados_neu\buildDS1403\install\lib\libblasfeo.a(kernel_dgeqrf_4_lib4.c.obj)
 .bss           0x0000000000131aac        0x0 C:\Users\Administrator\acados_neu\buildDS1403\install\lib\libblasfeo.a(kernel_dgetr_lib4.c.obj)
 .bss           0x0000000000131aac        0x0 C:\Users\Administrator\acados_neu\buildDS1403\install\lib\libblasfeo.a(kernel_dgetrf_pivot_lib4.c.obj)
 .bss           0x0000000000131aac        0x0 C:\Users\Administrator\acados_neu\buildDS1403\install\lib\libblasfeo.a(kernel_dpack_lib4.c.obj)
 .bss           0x0000000000131aac        0x0 C:\Users\Administrator\acados_neu\buildDS1403\install\lib\libblasfeo.a(kernel_dsymv_4_lib4.c.obj)
 .bss           0x0000000000131aac        0x0 C:\Users\Administrator\acados_neu\buildDS1403\install\lib\libhpipm.a(d_cond.c.obj)
 .bss           0x0000000000131aac        0x0 C:\Users\Administrator\acados_neu\buildDS1403\install\lib\libhpipm.a(d_cond_aux.c.obj)
 .bss           0x0000000000131aac        0x0 C:\Users\Administrator\acados_neu\buildDS1403\install\lib\libhpipm.a(d_part_cond.c.obj)
 .bss           0x0000000000131aac        0x0 C:\Users\Administrator\acados_neu\buildDS1403\install\lib\libhpipm.a(d_dense_qp.c.obj)
 .bss           0x0000000000131aac        0x0 C:\Users\Administrator\acados_neu\buildDS1403\install\lib\libhpipm.a(d_dense_qp_dim.c.obj)
 .bss           0x0000000000131aac        0x0 C:\Users\Administrator\acados_neu\buildDS1403\install\lib\libhpipm.a(d_dense_qp_ipm.c.obj)
 .bss           0x0000000000131aac        0x0 C:\Users\Administrator\acados_neu\buildDS1403\install\lib\libhpipm.a(d_dense_qp_kkt.c.obj)
 .bss           0x0000000000131aac        0x0 C:\Users\Administrator\acados_neu\buildDS1403\install\lib\libhpipm.a(d_dense_qp_res.c.obj)
 .bss           0x0000000000131aac        0x0 C:\Users\Administrator\acados_neu\buildDS1403\install\lib\libhpipm.a(d_dense_qp_sol.c.obj)
 .bss           0x0000000000131aac        0x0 C:\Users\Administrator\acados_neu\buildDS1403\install\lib\libhpipm.a(d_core_qp_ipm.c.obj)
 .bss           0x0000000000131aac        0x0 C:\Users\Administrator\acados_neu\buildDS1403\install\lib\libhpipm.a(d_core_qp_ipm_aux.c.obj)
 .bss           0x0000000000131aac        0x0 C:\Users\Administrator\acados_neu\buildDS1403\install\lib\libhpipm.a(d_ocp_qp.c.obj)
 .bss           0x0000000000131aac        0x0 C:\Users\Administrator\acados_neu\buildDS1403\install\lib\libhpipm.a(d_ocp_qp_dim.c.obj)
 .bss           0x0000000000131aac        0x0 C:\Users\Administrator\acados_neu\buildDS1403\install\lib\libhpipm.a(d_ocp_qp_ipm.c.obj)
 .bss           0x0000000000131aac        0x0 C:\Users\Administrator\acados_neu\buildDS1403\install\lib\libhpipm.a(d_ocp_qp_kkt.c.obj)
 .bss           0x0000000000131aac        0x0 C:\Users\Administrator\acados_neu\buildDS1403\install\lib\libhpipm.a(d_ocp_qp_red.c.obj)
 .bss           0x0000000000131aac        0x0 C:\Users\Administrator\acados_neu\buildDS1403\install\lib\libhpipm.a(d_ocp_qp_res.c.obj)
 .bss           0x0000000000131aac        0x0 C:\Users\Administrator\acados_neu\buildDS1403\install\lib\libhpipm.a(d_ocp_qp_sol.c.obj)
 .bss           0x0000000000131aac        0x0 C:\Users\Administrator\acados_neu\buildDS1403\install\lib\libhpipm.a(aux_mem.c.obj)
 .bss           0x0000000000131aac        0x0 C:\Users\Administrator\acados_neu\buildDS1403\install\lib\libhpipm.a(aux_string.c.obj)
 .bss           0x0000000000131aac        0x0 C:\Users\Administrator\acados_neu\buildDS1403\install\lib\libblasfeo.a(d_blas2_diag_lib.c.obj)
 .bss           0x0000000000131aac        0x0 c:/program files/dspace rcphil 2021-a/compiler/linux440_550/target/arm-linux-gnueabihf/bin/../lib\libc_nonshared.a(elf-init.oS)
 .bss           0x0000000000131aac        0x0 c:/program files/dspace rcphil 2021-a/compiler/linux440_550/target/arm-linux-gnueabihf/bin/../lib/gcc/arm-linux-gnueabihf/5.5.0/crtend.o
 .bss           0x0000000000131aac        0x0 c:/program files/dspace rcphil 2021-a/compiler/linux440_550/target/arm-linux-gnueabihf/bin/../lib/crtn.o
 *(COMMON)
                0x0000000000131aac                . = ALIGN ((. != 0x0)?0x4:0x1)
                0x0000000000131aac                _bss_end__ = .
                0x0000000000131aac                __bss_end__ = .
                0x0000000000131aac                . = ALIGN (0x4)
                0x0000000000131aac                . = SEGMENT_START ("ldata-segment", .)
                0x0000000000131aac                . = ALIGN (0x4)
                0x0000000000131aac                __end__ = .
                0x0000000000131aac                _end = .
                [!provide]                        PROVIDE (end, .)
                0x0000000000131aac                . = DATA_SEGMENT_END (.)

.stab
 *(.stab)

.stabstr
 *(.stabstr)

.stab.excl
 *(.stab.excl)

.stab.exclstr
 *(.stab.exclstr)

.stab.index
 *(.stab.index)

.stab.indexstr
 *(.stab.indexstr)

.comment        0x0000000000000000       0x11
 *(.comment)
 .comment       0x0000000000000000       0x11 c:/program files/dspace rcphil 2021-a/compiler/linux440_550/target/arm-linux-gnueabihf/bin/../lib/crt1.o
                                         0x12 (size before relaxing)
 .comment       0x0000000000000011       0x12 c:/program files/dspace rcphil 2021-a/compiler/linux440_550/target/arm-linux-gnueabihf/bin/../lib/gcc/arm-linux-gnueabihf/5.5.0/crtbegin.o
 .comment       0x0000000000000011       0x12 mdladapter_mdlfunctions.oarm
 .comment       0x0000000000000011       0x12 mdlCode_ap.oarm
 .comment       0x0000000000000011       0x12 data_in_ap.oarm
 .comment       0x0000000000000011       0x12 data_out_ap.oarm
 .comment       0x0000000000000011       0x12 fm_entry_ap.oarm
 .comment       0x0000000000000011       0x12 fm_exit_ap.oarm
 .comment       0x0000000000000011       0x12 dssimengine_accesspoint.oarm
 .comment       0x0000000000000011       0x12 dssimengine_api.oarm
 .comment       0x0000000000000011       0x12 dssimengine_main.oarm
 .comment       0x0000000000000011       0x12 rtosal_task.oarm
 .comment       0x0000000000000011       0x12 rtosal_taskap.oarm
 .comment       0x0000000000000011       0x12 rtosal_simengineap.oarm
 .comment       0x0000000000000011       0x12 IOCode_Data.oarm
 .comment       0x0000000000000011       0x12 dssimengine_accesspoint_Digital_Incremental_Encoder_In.oarm
 .comment       0x0000000000000011       0x12 dssimengine_accesspoint_Voltage_In.oarm
 .comment       0x0000000000000011       0x12 dssimengine_accesspoint_Voltage_Out.oarm
 .comment       0x0000000000000011       0x12 C:\Users\Administrator\Furuta\Furuta\Furuta_Acados\Build\Furuta_Model\Compile\Furuta_Model\Furuta_Model.a(Furuta_Model_dsmpbap.oarm)
 .comment       0x0000000000000011       0x12 C:\Users\Administrator\Furuta\Furuta\Furuta_Acados\Build\Furuta_Model\Compile\Furuta_Model\Furuta_Model.a(Furuta_Model_dsrtmdlfcn.oarm)
 .comment       0x0000000000000011       0x12 C:\Users\Administrator\Furuta\Furuta\Furuta_Acados\Build\Furuta_Model\Compile\Furuta_Model\Furuta_Model.a(Furuta_Model_dsrttf.oarm)
 .comment       0x0000000000000011       0x12 C:\Users\Administrator\Furuta\Furuta\Furuta_Acados\Build\Furuta_Model\Compile\Furuta_Model\Furuta_Model.a(Furuta_Model.oarm)
 .comment       0x0000000000000011       0x12 C:\Users\Administrator\Furuta\Furuta\Furuta_Acados\Build\Furuta_Model\Compile\Furuta_Model\Furuta_Model.a(Furuta_Model_data.oarm)
 .comment       0x0000000000000011       0x12 C:\Users\Administrator\Furuta\Furuta\Furuta_Acados\Build\Furuta_Model\Compile\Furuta_Model\Furuta_Model.a(Furuta_Model_dsrtvdf.oarm)
 .comment       0x0000000000000011       0x12 C:\Users\Administrator\Furuta\Furuta\Furuta_Acados\Build\Furuta_Model\Compile\Furuta_Model\Furuta_Model.a(rt_nonfinite.oarm)
 .comment       0x0000000000000011       0x12 C:\Users\Administrator\Furuta\Furuta\Furuta_Acados\Build\Furuta_Model\Compile\Furuta_Model\Furuta_Model.a(rt_zcfcn.oarm)
 .comment       0x0000000000000011       0x12 C:\Users\Administrator\Furuta\Furuta\Furuta_Acados\Build\Furuta_Model\Compile\Furuta_Model\Furuta_Model.a(acados_solver_sfunction_furuta.oarm)
 .comment       0x0000000000000011       0x12 C:\Users\Administrator\Furuta\Furuta\Furuta_Acados\Build\Furuta_Model\Compile\Furuta_Model\Furuta_Model.a(rtGetInf.oarm)
 .comment       0x0000000000000011       0x12 C:\Users\Administrator\Furuta\Furuta\Furuta_Acados\Build\Furuta_Model\Compile\Furuta_Model\Furuta_Model.a(rtGetNaN.oarm)
 .comment       0x0000000000000011       0x12 C:\Users\Administrator\Furuta\Furuta\Furuta_Acados\Build\Furuta_Model\Compile\Furuta_Model\Furuta_Model.a(acados_solver_furuta.oarm)
 .comment       0x0000000000000011       0x12 C:\Users\Administrator\Furuta\Furuta\Furuta_Acados\Build\Furuta_Model\Compile\Furuta_Model\Furuta_Model.a(furuta_expl_ode_fun.oarm)
 .comment       0x0000000000000011       0x12 C:\Users\Administrator\Furuta\Furuta\Furuta_Acados\Build\Furuta_Model\Compile\Furuta_Model\Furuta_Model.a(furuta_expl_vde_forw.oarm)
 .comment       0x0000000000000011       0x12 C:\Users\Administrator\acados_neu\buildDS1403\install\lib\libacados.a(ocp_nlp_common.c.obj)
 .comment       0x0000000000000011       0x12 C:\Users\Administrator\acados_neu\buildDS1403\install\lib\libacados.a(ocp_nlp_constraints_common.c.obj)
 .comment       0x0000000000000011       0x12 C:\Users\Administrator\acados_neu\buildDS1403\install\lib\libacados.a(ocp_nlp_cost_common.c.obj)
 .comment       0x0000000000000011       0x12 C:\Users\Administrator\acados_neu\buildDS1403\install\lib\libacados.a(ocp_nlp_dynamics_common.c.obj)
 .comment       0x0000000000000011       0x12 C:\Users\Administrator\acados_neu\buildDS1403\install\lib\libacados.a(ocp_nlp_reg_common.c.obj)
 .comment       0x0000000000000011       0x12 C:\Users\Administrator\acados_neu\buildDS1403\install\lib\libacados.a(ocp_qp_common.c.obj)
 .comment       0x0000000000000011       0x12 C:\Users\Administrator\acados_neu\buildDS1403\install\lib\libacados.a(ocp_qp_xcond_solver.c.obj)
 .comment       0x0000000000000011       0x12 C:\Users\Administrator\acados_neu\buildDS1403\install\lib\libacados.a(sim_common.c.obj)
 .comment       0x0000000000000011       0x12 C:\Users\Administrator\acados_neu\buildDS1403\install\lib\libacados.a(math.c.obj)
 .comment       0x0000000000000011       0x12 C:\Users\Administrator\acados_neu\buildDS1403\install\lib\libacados.a(mem.c.obj)
 .comment       0x0000000000000011       0x12 C:\Users\Administrator\acados_neu\buildDS1403\install\lib\libacados.a(timing.c.obj)
 .comment       0x0000000000000011       0x12 C:\Users\Administrator\acados_neu\buildDS1403\install\lib\libacados.a(external_function_interface.c.obj)
 .comment       0x0000000000000011       0x12 C:\Users\Administrator\acados_neu\buildDS1403\install\lib\libacados.a(ocp_nlp_interface.c.obj)
 .comment       0x0000000000000011       0x12 C:\Users\Administrator\acados_neu\buildDS1403\install\lib\libacados.a(ocp_qp_interface.c.obj)
 .comment       0x0000000000000011       0x12 C:\Users\Administrator\acados_neu\buildDS1403\install\lib\libacados.a(dense_qp_hpipm.c.obj)
 .comment       0x0000000000000011       0x12 C:\Users\Administrator\acados_neu\buildDS1403\install\lib\libacados.a(ocp_nlp_constraints_bgh.c.obj)
 .comment       0x0000000000000011       0x12 C:\Users\Administrator\acados_neu\buildDS1403\install\lib\libacados.a(ocp_nlp_constraints_bgp.c.obj)
 .comment       0x0000000000000011       0x12 C:\Users\Administrator\acados_neu\buildDS1403\install\lib\libacados.a(ocp_nlp_cost_conl.c.obj)
 .comment       0x0000000000000011       0x12 C:\Users\Administrator\acados_neu\buildDS1403\install\lib\libacados.a(ocp_nlp_cost_external.c.obj)
 .comment       0x0000000000000011       0x12 C:\Users\Administrator\acados_neu\buildDS1403\install\lib\libacados.a(ocp_nlp_cost_ls.c.obj)
 .comment       0x0000000000000011       0x12 C:\Users\Administrator\acados_neu\buildDS1403\install\lib\libacados.a(ocp_nlp_cost_nls.c.obj)
 .comment       0x0000000000000011       0x12 C:\Users\Administrator\acados_neu\buildDS1403\install\lib\libacados.a(ocp_nlp_dynamics_cont.c.obj)
 .comment       0x0000000000000011       0x12 C:\Users\Administrator\acados_neu\buildDS1403\install\lib\libacados.a(ocp_nlp_dynamics_disc.c.obj)
 .comment       0x0000000000000011       0x12 C:\Users\Administrator\acados_neu\buildDS1403\install\lib\libacados.a(ocp_nlp_reg_convexify.c.obj)
 .comment       0x0000000000000011       0x12 C:\Users\Administrator\acados_neu\buildDS1403\install\lib\libacados.a(ocp_nlp_reg_mirror.c.obj)
 .comment       0x0000000000000011       0x12 C:\Users\Administrator\acados_neu\buildDS1403\install\lib\libacados.a(ocp_nlp_reg_noreg.c.obj)
 .comment       0x0000000000000011       0x12 C:\Users\Administrator\acados_neu\buildDS1403\install\lib\libacados.a(ocp_nlp_reg_project.c.obj)
 .comment       0x0000000000000011       0x12 C:\Users\Administrator\acados_neu\buildDS1403\install\lib\libacados.a(ocp_nlp_reg_project_reduc_hess.c.obj)
 .comment       0x0000000000000011       0x12 C:\Users\Administrator\acados_neu\buildDS1403\install\lib\libacados.a(ocp_nlp_sqp.c.obj)
 .comment       0x0000000000000011       0x12 C:\Users\Administrator\acados_neu\buildDS1403\install\lib\libacados.a(ocp_nlp_sqp_rti.c.obj)
 .comment       0x0000000000000011       0x12 C:\Users\Administrator\acados_neu\buildDS1403\install\lib\libacados.a(ocp_qp_full_condensing.c.obj)
 .comment       0x0000000000000011       0x12 C:\Users\Administrator\acados_neu\buildDS1403\install\lib\libacados.a(ocp_qp_hpipm.c.obj)
 .comment       0x0000000000000011       0x12 C:\Users\Administrator\acados_neu\buildDS1403\install\lib\libacados.a(ocp_qp_partial_condensing.c.obj)
 .comment       0x0000000000000011       0x12 C:\Users\Administrator\acados_neu\buildDS1403\install\lib\libacados.a(sim_erk_integrator.c.obj)
 .comment       0x0000000000000011       0x12 C:\Users\Administrator\acados_neu\buildDS1403\install\lib\libacados.a(sim_gnsf.c.obj)
 .comment       0x0000000000000011       0x12 C:\Users\Administrator\acados_neu\buildDS1403\install\lib\libacados.a(sim_irk_integrator.c.obj)
 .comment       0x0000000000000011       0x12 C:\Users\Administrator\acados_neu\buildDS1403\install\lib\libacados.a(sim_lifted_irk_integrator.c.obj)
 .comment       0x0000000000000011       0x12 C:\Users\Administrator\acados_neu\buildDS1403\install\lib\libacados.a(external_function_generic.c.obj)
 .comment       0x0000000000000011       0x12 C:\Users\Administrator\acados_neu\buildDS1403\install\lib\libacados.a(print.c.obj)
 .comment       0x0000000000000011       0x12 C:\Users\Administrator\acados_neu\buildDS1403\install\lib\libacados.a(sim_interface.c.obj)
 .comment       0x0000000000000011       0x12 C:\Users\Administrator\acados_neu\buildDS1403\install\lib\libacados.a(dense_qp_common.c.obj)
 .comment       0x0000000000000011       0x12 C:\Users\Administrator\acados_neu\buildDS1403\install\lib\libacados.a(sim_collocation_utils.c.obj)
 .comment       0x0000000000000011       0x12 C:\Users\Administrator\acados_neu\buildDS1403\install\lib\libblasfeo.a(d_aux_lib4.c.obj)
 .comment       0x0000000000000011       0x12 C:\Users\Administrator\acados_neu\buildDS1403\install\lib\libblasfeo.a(d_blas1_lib4.c.obj)
 .comment       0x0000000000000011       0x12 C:\Users\Administrator\acados_neu\buildDS1403\install\lib\libblasfeo.a(d_blas2_lib4.c.obj)
 .comment       0x0000000000000011       0x12 C:\Users\Administrator\acados_neu\buildDS1403\install\lib\libblasfeo.a(d_blas3_diag_lib4.c.obj)
 .comment       0x0000000000000011       0x12 C:\Users\Administrator\acados_neu\buildDS1403\install\lib\libblasfeo.a(d_blas3_lib4.c.obj)
 .comment       0x0000000000000011       0x12 C:\Users\Administrator\acados_neu\buildDS1403\install\lib\libblasfeo.a(d_lapack_lib4.c.obj)
 .comment       0x0000000000000011       0x12 C:\Users\Administrator\acados_neu\buildDS1403\install\lib\libblasfeo.a(d_aux_ref.c.obj)
 .comment       0x0000000000000011       0x12 C:\Users\Administrator\acados_neu\buildDS1403\install\lib\libblasfeo.a(d_blas2_ref.c.obj)
 .comment       0x0000000000000011       0x12 C:\Users\Administrator\acados_neu\buildDS1403\install\lib\libblasfeo.a(d_blas3_diag_ref.c.obj)
 .comment       0x0000000000000011       0x12 C:\Users\Administrator\acados_neu\buildDS1403\install\lib\libblasfeo.a(d_blas3_ref.c.obj)
 .comment       0x0000000000000011       0x12 C:\Users\Administrator\acados_neu\buildDS1403\install\lib\libblasfeo.a(d_lapack_ref.c.obj)
 .comment       0x0000000000000011       0x12 C:\Users\Administrator\acados_neu\buildDS1403\install\lib\libblasfeo.a(kernel_align_generic.c.obj)
 .comment       0x0000000000000011       0x12 C:\Users\Administrator\acados_neu\buildDS1403\install\lib\libblasfeo.a(kernel_d_aux_lib.c.obj)
 .comment       0x0000000000000011       0x12 C:\Users\Administrator\acados_neu\buildDS1403\install\lib\libblasfeo.a(kernel_dgecp_lib4.c.obj)
 .comment       0x0000000000000011       0x12 C:\Users\Administrator\acados_neu\buildDS1403\install\lib\libblasfeo.a(kernel_dgemm_4x4_lib4.c.obj)
 .comment       0x0000000000000011       0x12 C:\Users\Administrator\acados_neu\buildDS1403\install\lib\libblasfeo.a(kernel_dgemm_diag_lib4.c.obj)
 .comment       0x0000000000000011       0x12 C:\Users\Administrator\acados_neu\buildDS1403\install\lib\libblasfeo.a(kernel_dgemv_4_lib4.c.obj)
 .comment       0x0000000000000011       0x12 C:\Users\Administrator\acados_neu\buildDS1403\install\lib\libblasfeo.a(kernel_dgeqrf_4_lib4.c.obj)
 .comment       0x0000000000000011       0x12 C:\Users\Administrator\acados_neu\buildDS1403\install\lib\libblasfeo.a(kernel_dgetr_lib4.c.obj)
 .comment       0x0000000000000011       0x12 C:\Users\Administrator\acados_neu\buildDS1403\install\lib\libblasfeo.a(kernel_dgetrf_pivot_lib4.c.obj)
 .comment       0x0000000000000011       0x12 C:\Users\Administrator\acados_neu\buildDS1403\install\lib\libblasfeo.a(kernel_dpack_lib4.c.obj)
 .comment       0x0000000000000011       0x12 C:\Users\Administrator\acados_neu\buildDS1403\install\lib\libblasfeo.a(kernel_dsymv_4_lib4.c.obj)
 .comment       0x0000000000000011       0x12 C:\Users\Administrator\acados_neu\buildDS1403\install\lib\libhpipm.a(d_cond.c.obj)
 .comment       0x0000000000000011       0x12 C:\Users\Administrator\acados_neu\buildDS1403\install\lib\libhpipm.a(d_cond_aux.c.obj)
 .comment       0x0000000000000011       0x12 C:\Users\Administrator\acados_neu\buildDS1403\install\lib\libhpipm.a(d_part_cond.c.obj)
 .comment       0x0000000000000011       0x12 C:\Users\Administrator\acados_neu\buildDS1403\install\lib\libhpipm.a(d_dense_qp.c.obj)
 .comment       0x0000000000000011       0x12 C:\Users\Administrator\acados_neu\buildDS1403\install\lib\libhpipm.a(d_dense_qp_dim.c.obj)
 .comment       0x0000000000000011       0x12 C:\Users\Administrator\acados_neu\buildDS1403\install\lib\libhpipm.a(d_dense_qp_ipm.c.obj)
 .comment       0x0000000000000011       0x12 C:\Users\Administrator\acados_neu\buildDS1403\install\lib\libhpipm.a(d_dense_qp_kkt.c.obj)
 .comment       0x0000000000000011       0x12 C:\Users\Administrator\acados_neu\buildDS1403\install\lib\libhpipm.a(d_dense_qp_res.c.obj)
 .comment       0x0000000000000011       0x12 C:\Users\Administrator\acados_neu\buildDS1403\install\lib\libhpipm.a(d_dense_qp_sol.c.obj)
 .comment       0x0000000000000011       0x12 C:\Users\Administrator\acados_neu\buildDS1403\install\lib\libhpipm.a(d_core_qp_ipm.c.obj)
 .comment       0x0000000000000011       0x12 C:\Users\Administrator\acados_neu\buildDS1403\install\lib\libhpipm.a(d_core_qp_ipm_aux.c.obj)
 .comment       0x0000000000000011       0x12 C:\Users\Administrator\acados_neu\buildDS1403\install\lib\libhpipm.a(d_ocp_qp.c.obj)
 .comment       0x0000000000000011       0x12 C:\Users\Administrator\acados_neu\buildDS1403\install\lib\libhpipm.a(d_ocp_qp_dim.c.obj)
 .comment       0x0000000000000011       0x12 C:\Users\Administrator\acados_neu\buildDS1403\install\lib\libhpipm.a(d_ocp_qp_ipm.c.obj)
 .comment       0x0000000000000011       0x12 C:\Users\Administrator\acados_neu\buildDS1403\install\lib\libhpipm.a(d_ocp_qp_kkt.c.obj)
 .comment       0x0000000000000011       0x12 C:\Users\Administrator\acados_neu\buildDS1403\install\lib\libhpipm.a(d_ocp_qp_red.c.obj)
 .comment       0x0000000000000011       0x12 C:\Users\Administrator\acados_neu\buildDS1403\install\lib\libhpipm.a(d_ocp_qp_res.c.obj)
 .comment       0x0000000000000011       0x12 C:\Users\Administrator\acados_neu\buildDS1403\install\lib\libhpipm.a(d_ocp_qp_sol.c.obj)
 .comment       0x0000000000000011       0x12 C:\Users\Administrator\acados_neu\buildDS1403\install\lib\libhpipm.a(aux_mem.c.obj)
 .comment       0x0000000000000011       0x12 C:\Users\Administrator\acados_neu\buildDS1403\install\lib\libhpipm.a(aux_string.c.obj)
 .comment       0x0000000000000011       0x12 C:\Users\Administrator\acados_neu\buildDS1403\install\lib\libblasfeo.a(d_blas2_diag_lib.c.obj)
 .comment       0x0000000000000011       0x12 c:/program files/dspace rcphil 2021-a/compiler/linux440_550/target/arm-linux-gnueabihf/bin/../lib\libc_nonshared.a(elf-init.oS)
 .comment       0x0000000000000011       0x12 c:/program files/dspace rcphil 2021-a/compiler/linux440_550/target/arm-linux-gnueabihf/bin/../lib/gcc/arm-linux-gnueabihf/5.5.0/crtend.o

.ARM.attributes
                0x0000000000000000       0x3b
 .ARM.attributes
                0x0000000000000000       0x35 c:/program files/dspace rcphil 2021-a/compiler/linux440_550/target/arm-linux-gnueabihf/bin/../lib/crt1.o
 .ARM.attributes
                0x0000000000000035       0x25 c:/program files/dspace rcphil 2021-a/compiler/linux440_550/target/arm-linux-gnueabihf/bin/../lib/crti.o
 .ARM.attributes
                0x000000000000005a       0x37 c:/program files/dspace rcphil 2021-a/compiler/linux440_550/target/arm-linux-gnueabihf/bin/../lib/gcc/arm-linux-gnueabihf/5.5.0/crtbegin.o
 .ARM.attributes
                0x0000000000000091       0x3e mdladapter_mdlfunctions.oarm
 .ARM.attributes
                0x00000000000000cf       0x3e mdlCode_ap.oarm
 .ARM.attributes
                0x000000000000010d       0x3e data_in_ap.oarm
 .ARM.attributes
                0x000000000000014b       0x3e data_out_ap.oarm
 .ARM.attributes
                0x0000000000000189       0x3e fm_entry_ap.oarm
 .ARM.attributes
                0x00000000000001c7       0x3e fm_exit_ap.oarm
 .ARM.attributes
                0x0000000000000205       0x3e dssimengine_accesspoint.oarm
 .ARM.attributes
                0x0000000000000243       0x3e dssimengine_api.oarm
 .ARM.attributes
                0x0000000000000281       0x3e dssimengine_main.oarm
 .ARM.attributes
                0x00000000000002bf       0x3e rtosal_task.oarm
 .ARM.attributes
                0x00000000000002fd       0x3e rtosal_taskap.oarm
 .ARM.attributes
                0x000000000000033b       0x3e rtosal_simengineap.oarm
 .ARM.attributes
                0x0000000000000379       0x3e IOCode_Data.oarm
 .ARM.attributes
                0x00000000000003b7       0x3e dssimengine_accesspoint_Digital_Incremental_Encoder_In.oarm
 .ARM.attributes
                0x00000000000003f5       0x3e dssimengine_accesspoint_Voltage_In.oarm
 .ARM.attributes
                0x0000000000000433       0x3e dssimengine_accesspoint_Voltage_Out.oarm
 .ARM.attributes
                0x0000000000000471       0x3e C:\Users\Administrator\Furuta\Furuta\Furuta_Acados\Build\Furuta_Model\Compile\Furuta_Model\Furuta_Model.a(Furuta_Model_dsmpbap.oarm)
 .ARM.attributes
                0x00000000000004af       0x3e C:\Users\Administrator\Furuta\Furuta\Furuta_Acados\Build\Furuta_Model\Compile\Furuta_Model\Furuta_Model.a(Furuta_Model_dsrtmdlfcn.oarm)
 .ARM.attributes
                0x00000000000004ed       0x3e C:\Users\Administrator\Furuta\Furuta\Furuta_Acados\Build\Furuta_Model\Compile\Furuta_Model\Furuta_Model.a(Furuta_Model_dsrttf.oarm)
 .ARM.attributes
                0x000000000000052b       0x3e C:\Users\Administrator\Furuta\Furuta\Furuta_Acados\Build\Furuta_Model\Compile\Furuta_Model\Furuta_Model.a(Furuta_Model.oarm)
 .ARM.attributes
                0x0000000000000569       0x3e C:\Users\Administrator\Furuta\Furuta\Furuta_Acados\Build\Furuta_Model\Compile\Furuta_Model\Furuta_Model.a(Furuta_Model_data.oarm)
 .ARM.attributes
                0x00000000000005a7       0x3e C:\Users\Administrator\Furuta\Furuta\Furuta_Acados\Build\Furuta_Model\Compile\Furuta_Model\Furuta_Model.a(Furuta_Model_dsrtvdf.oarm)
 .ARM.attributes
                0x00000000000005e5       0x3e C:\Users\Administrator\Furuta\Furuta\Furuta_Acados\Build\Furuta_Model\Compile\Furuta_Model\Furuta_Model.a(rt_nonfinite.oarm)
 .ARM.attributes
                0x0000000000000623       0x3e C:\Users\Administrator\Furuta\Furuta\Furuta_Acados\Build\Furuta_Model\Compile\Furuta_Model\Furuta_Model.a(rt_zcfcn.oarm)
 .ARM.attributes
                0x0000000000000661       0x3e C:\Users\Administrator\Furuta\Furuta\Furuta_Acados\Build\Furuta_Model\Compile\Furuta_Model\Furuta_Model.a(acados_solver_sfunction_furuta.oarm)
 .ARM.attributes
                0x000000000000069f       0x3e C:\Users\Administrator\Furuta\Furuta\Furuta_Acados\Build\Furuta_Model\Compile\Furuta_Model\Furuta_Model.a(rtGetInf.oarm)
 .ARM.attributes
                0x00000000000006dd       0x3e C:\Users\Administrator\Furuta\Furuta\Furuta_Acados\Build\Furuta_Model\Compile\Furuta_Model\Furuta_Model.a(rtGetNaN.oarm)
 .ARM.attributes
                0x000000000000071b       0x3e C:\Users\Administrator\Furuta\Furuta\Furuta_Acados\Build\Furuta_Model\Compile\Furuta_Model\Furuta_Model.a(acados_solver_furuta.oarm)
 .ARM.attributes
                0x0000000000000759       0x3e C:\Users\Administrator\Furuta\Furuta\Furuta_Acados\Build\Furuta_Model\Compile\Furuta_Model\Furuta_Model.a(furuta_expl_ode_fun.oarm)
 .ARM.attributes
                0x0000000000000797       0x3e C:\Users\Administrator\Furuta\Furuta\Furuta_Acados\Build\Furuta_Model\Compile\Furuta_Model\Furuta_Model.a(furuta_expl_vde_forw.oarm)
 .ARM.attributes
                0x00000000000007d5       0x37 C:\Users\Administrator\acados_neu\buildDS1403\install\lib\libacados.a(ocp_nlp_common.c.obj)
 .ARM.attributes
                0x000000000000080c       0x37 C:\Users\Administrator\acados_neu\buildDS1403\install\lib\libacados.a(ocp_nlp_constraints_common.c.obj)
 .ARM.attributes
                0x0000000000000843       0x37 C:\Users\Administrator\acados_neu\buildDS1403\install\lib\libacados.a(ocp_nlp_cost_common.c.obj)
 .ARM.attributes
                0x000000000000087a       0x37 C:\Users\Administrator\acados_neu\buildDS1403\install\lib\libacados.a(ocp_nlp_dynamics_common.c.obj)
 .ARM.attributes
                0x00000000000008b1       0x37 C:\Users\Administrator\acados_neu\buildDS1403\install\lib\libacados.a(ocp_nlp_reg_common.c.obj)
 .ARM.attributes
                0x00000000000008e8       0x37 C:\Users\Administrator\acados_neu\buildDS1403\install\lib\libacados.a(ocp_qp_common.c.obj)
 .ARM.attributes
                0x000000000000091f       0x37 C:\Users\Administrator\acados_neu\buildDS1403\install\lib\libacados.a(ocp_qp_xcond_solver.c.obj)
 .ARM.attributes
                0x0000000000000956       0x37 C:\Users\Administrator\acados_neu\buildDS1403\install\lib\libacados.a(sim_common.c.obj)
 .ARM.attributes
                0x000000000000098d       0x37 C:\Users\Administrator\acados_neu\buildDS1403\install\lib\libacados.a(math.c.obj)
 .ARM.attributes
                0x00000000000009c4       0x37 C:\Users\Administrator\acados_neu\buildDS1403\install\lib\libacados.a(mem.c.obj)
 .ARM.attributes
                0x00000000000009fb       0x37 C:\Users\Administrator\acados_neu\buildDS1403\install\lib\libacados.a(timing.c.obj)
 .ARM.attributes
                0x0000000000000a32       0x37 C:\Users\Administrator\acados_neu\buildDS1403\install\lib\libacados.a(external_function_interface.c.obj)
 .ARM.attributes
                0x0000000000000a69       0x37 C:\Users\Administrator\acados_neu\buildDS1403\install\lib\libacados.a(ocp_nlp_interface.c.obj)
 .ARM.attributes
                0x0000000000000aa0       0x37 C:\Users\Administrator\acados_neu\buildDS1403\install\lib\libacados.a(ocp_qp_interface.c.obj)
 .ARM.attributes
                0x0000000000000ad7       0x37 C:\Users\Administrator\acados_neu\buildDS1403\install\lib\libacados.a(dense_qp_hpipm.c.obj)
 .ARM.attributes
                0x0000000000000b0e       0x37 C:\Users\Administrator\acados_neu\buildDS1403\install\lib\libacados.a(ocp_nlp_constraints_bgh.c.obj)
 .ARM.attributes
                0x0000000000000b45       0x37 C:\Users\Administrator\acados_neu\buildDS1403\install\lib\libacados.a(ocp_nlp_constraints_bgp.c.obj)
 .ARM.attributes
                0x0000000000000b7c       0x37 C:\Users\Administrator\acados_neu\buildDS1403\install\lib\libacados.a(ocp_nlp_cost_conl.c.obj)
 .ARM.attributes
                0x0000000000000bb3       0x37 C:\Users\Administrator\acados_neu\buildDS1403\install\lib\libacados.a(ocp_nlp_cost_external.c.obj)
 .ARM.attributes
                0x0000000000000bea       0x37 C:\Users\Administrator\acados_neu\buildDS1403\install\lib\libacados.a(ocp_nlp_cost_ls.c.obj)
 .ARM.attributes
                0x0000000000000c21       0x37 C:\Users\Administrator\acados_neu\buildDS1403\install\lib\libacados.a(ocp_nlp_cost_nls.c.obj)
 .ARM.attributes
                0x0000000000000c58       0x37 C:\Users\Administrator\acados_neu\buildDS1403\install\lib\libacados.a(ocp_nlp_dynamics_cont.c.obj)
 .ARM.attributes
                0x0000000000000c8f       0x37 C:\Users\Administrator\acados_neu\buildDS1403\install\lib\libacados.a(ocp_nlp_dynamics_disc.c.obj)
 .ARM.attributes
                0x0000000000000cc6       0x37 C:\Users\Administrator\acados_neu\buildDS1403\install\lib\libacados.a(ocp_nlp_reg_convexify.c.obj)
 .ARM.attributes
                0x0000000000000cfd       0x37 C:\Users\Administrator\acados_neu\buildDS1403\install\lib\libacados.a(ocp_nlp_reg_mirror.c.obj)
 .ARM.attributes
                0x0000000000000d34       0x37 C:\Users\Administrator\acados_neu\buildDS1403\install\lib\libacados.a(ocp_nlp_reg_noreg.c.obj)
 .ARM.attributes
                0x0000000000000d6b       0x37 C:\Users\Administrator\acados_neu\buildDS1403\install\lib\libacados.a(ocp_nlp_reg_project.c.obj)
 .ARM.attributes
                0x0000000000000da2       0x37 C:\Users\Administrator\acados_neu\buildDS1403\install\lib\libacados.a(ocp_nlp_reg_project_reduc_hess.c.obj)
 .ARM.attributes
                0x0000000000000dd9       0x37 C:\Users\Administrator\acados_neu\buildDS1403\install\lib\libacados.a(ocp_nlp_sqp.c.obj)
 .ARM.attributes
                0x0000000000000e10       0x37 C:\Users\Administrator\acados_neu\buildDS1403\install\lib\libacados.a(ocp_nlp_sqp_rti.c.obj)
 .ARM.attributes
                0x0000000000000e47       0x37 C:\Users\Administrator\acados_neu\buildDS1403\install\lib\libacados.a(ocp_qp_full_condensing.c.obj)
 .ARM.attributes
                0x0000000000000e7e       0x37 C:\Users\Administrator\acados_neu\buildDS1403\install\lib\libacados.a(ocp_qp_hpipm.c.obj)
 .ARM.attributes
                0x0000000000000eb5       0x37 C:\Users\Administrator\acados_neu\buildDS1403\install\lib\libacados.a(ocp_qp_partial_condensing.c.obj)
 .ARM.attributes
                0x0000000000000eec       0x37 C:\Users\Administrator\acados_neu\buildDS1403\install\lib\libacados.a(sim_erk_integrator.c.obj)
 .ARM.attributes
                0x0000000000000f23       0x37 C:\Users\Administrator\acados_neu\buildDS1403\install\lib\libacados.a(sim_gnsf.c.obj)
 .ARM.attributes
                0x0000000000000f5a       0x37 C:\Users\Administrator\acados_neu\buildDS1403\install\lib\libacados.a(sim_irk_integrator.c.obj)
 .ARM.attributes
                0x0000000000000f91       0x37 C:\Users\Administrator\acados_neu\buildDS1403\install\lib\libacados.a(sim_lifted_irk_integrator.c.obj)
 .ARM.attributes
                0x0000000000000fc8       0x37 C:\Users\Administrator\acados_neu\buildDS1403\install\lib\libacados.a(external_function_generic.c.obj)
 .ARM.attributes
                0x0000000000000fff       0x37 C:\Users\Administrator\acados_neu\buildDS1403\install\lib\libacados.a(print.c.obj)
 .ARM.attributes
                0x0000000000001036       0x37 C:\Users\Administrator\acados_neu\buildDS1403\install\lib\libacados.a(sim_interface.c.obj)
 .ARM.attributes
                0x000000000000106d       0x37 C:\Users\Administrator\acados_neu\buildDS1403\install\lib\libacados.a(dense_qp_common.c.obj)
 .ARM.attributes
                0x00000000000010a4       0x37 C:\Users\Administrator\acados_neu\buildDS1403\install\lib\libacados.a(sim_collocation_utils.c.obj)
 .ARM.attributes
                0x00000000000010db       0x37 C:\Users\Administrator\acados_neu\buildDS1403\install\lib\libblasfeo.a(d_aux_lib4.c.obj)
 .ARM.attributes
                0x0000000000001112       0x37 C:\Users\Administrator\acados_neu\buildDS1403\install\lib\libblasfeo.a(d_blas1_lib4.c.obj)
 .ARM.attributes
                0x0000000000001149       0x37 C:\Users\Administrator\acados_neu\buildDS1403\install\lib\libblasfeo.a(d_blas2_lib4.c.obj)
 .ARM.attributes
                0x0000000000001180       0x37 C:\Users\Administrator\acados_neu\buildDS1403\install\lib\libblasfeo.a(d_blas3_diag_lib4.c.obj)
 .ARM.attributes
                0x00000000000011b7       0x37 C:\Users\Administrator\acados_neu\buildDS1403\install\lib\libblasfeo.a(d_blas3_lib4.c.obj)
 .ARM.attributes
                0x00000000000011ee       0x37 C:\Users\Administrator\acados_neu\buildDS1403\install\lib\libblasfeo.a(d_lapack_lib4.c.obj)
 .ARM.attributes
                0x0000000000001225       0x37 C:\Users\Administrator\acados_neu\buildDS1403\install\lib\libblasfeo.a(d_aux_ref.c.obj)
 .ARM.attributes
                0x000000000000125c       0x37 C:\Users\Administrator\acados_neu\buildDS1403\install\lib\libblasfeo.a(d_blas2_ref.c.obj)
 .ARM.attributes
                0x0000000000001293       0x37 C:\Users\Administrator\acados_neu\buildDS1403\install\lib\libblasfeo.a(d_blas3_diag_ref.c.obj)
 .ARM.attributes
                0x00000000000012ca       0x37 C:\Users\Administrator\acados_neu\buildDS1403\install\lib\libblasfeo.a(d_blas3_ref.c.obj)
 .ARM.attributes
                0x0000000000001301       0x37 C:\Users\Administrator\acados_neu\buildDS1403\install\lib\libblasfeo.a(d_lapack_ref.c.obj)
 .ARM.attributes
                0x0000000000001338       0x37 C:\Users\Administrator\acados_neu\buildDS1403\install\lib\libblasfeo.a(kernel_align_generic.c.obj)
 .ARM.attributes
                0x000000000000136f       0x37 C:\Users\Administrator\acados_neu\buildDS1403\install\lib\libblasfeo.a(kernel_d_aux_lib.c.obj)
 .ARM.attributes
                0x00000000000013a6       0x37 C:\Users\Administrator\acados_neu\buildDS1403\install\lib\libblasfeo.a(kernel_dgecp_lib4.c.obj)
 .ARM.attributes
                0x00000000000013dd       0x37 C:\Users\Administrator\acados_neu\buildDS1403\install\lib\libblasfeo.a(kernel_dgemm_4x4_lib4.c.obj)
 .ARM.attributes
                0x0000000000001414       0x37 C:\Users\Administrator\acados_neu\buildDS1403\install\lib\libblasfeo.a(kernel_dgemm_diag_lib4.c.obj)
 .ARM.attributes
                0x000000000000144b       0x37 C:\Users\Administrator\acados_neu\buildDS1403\install\lib\libblasfeo.a(kernel_dgemv_4_lib4.c.obj)
 .ARM.attributes
                0x0000000000001482       0x37 C:\Users\Administrator\acados_neu\buildDS1403\install\lib\libblasfeo.a(kernel_dgeqrf_4_lib4.c.obj)
 .ARM.attributes
                0x00000000000014b9       0x37 C:\Users\Administrator\acados_neu\buildDS1403\install\lib\libblasfeo.a(kernel_dgetr_lib4.c.obj)
 .ARM.attributes
                0x00000000000014f0       0x37 C:\Users\Administrator\acados_neu\buildDS1403\install\lib\libblasfeo.a(kernel_dgetrf_pivot_lib4.c.obj)
 .ARM.attributes
                0x0000000000001527       0x37 C:\Users\Administrator\acados_neu\buildDS1403\install\lib\libblasfeo.a(kernel_dpack_lib4.c.obj)
 .ARM.attributes
                0x000000000000155e       0x37 C:\Users\Administrator\acados_neu\buildDS1403\install\lib\libblasfeo.a(kernel_dsymv_4_lib4.c.obj)
 .ARM.attributes
                0x0000000000001595       0x37 C:\Users\Administrator\acados_neu\buildDS1403\install\lib\libhpipm.a(d_cond.c.obj)
 .ARM.attributes
                0x00000000000015cc       0x37 C:\Users\Administrator\acados_neu\buildDS1403\install\lib\libhpipm.a(d_cond_aux.c.obj)
 .ARM.attributes
                0x0000000000001603       0x37 C:\Users\Administrator\acados_neu\buildDS1403\install\lib\libhpipm.a(d_part_cond.c.obj)
 .ARM.attributes
                0x000000000000163a       0x37 C:\Users\Administrator\acados_neu\buildDS1403\install\lib\libhpipm.a(d_dense_qp.c.obj)
 .ARM.attributes
                0x0000000000001671       0x37 C:\Users\Administrator\acados_neu\buildDS1403\install\lib\libhpipm.a(d_dense_qp_dim.c.obj)
 .ARM.attributes
                0x00000000000016a8       0x37 C:\Users\Administrator\acados_neu\buildDS1403\install\lib\libhpipm.a(d_dense_qp_ipm.c.obj)
 .ARM.attributes
                0x00000000000016df       0x37 C:\Users\Administrator\acados_neu\buildDS1403\install\lib\libhpipm.a(d_dense_qp_kkt.c.obj)
 .ARM.attributes
                0x0000000000001716       0x37 C:\Users\Administrator\acados_neu\buildDS1403\install\lib\libhpipm.a(d_dense_qp_res.c.obj)
 .ARM.attributes
                0x000000000000174d       0x37 C:\Users\Administrator\acados_neu\buildDS1403\install\lib\libhpipm.a(d_dense_qp_sol.c.obj)
 .ARM.attributes
                0x0000000000001784       0x37 C:\Users\Administrator\acados_neu\buildDS1403\install\lib\libhpipm.a(d_core_qp_ipm.c.obj)
 .ARM.attributes
                0x00000000000017bb       0x37 C:\Users\Administrator\acados_neu\buildDS1403\install\lib\libhpipm.a(d_core_qp_ipm_aux.c.obj)
 .ARM.attributes
                0x00000000000017f2       0x37 C:\Users\Administrator\acados_neu\buildDS1403\install\lib\libhpipm.a(d_ocp_qp.c.obj)
 .ARM.attributes
                0x0000000000001829       0x37 C:\Users\Administrator\acados_neu\buildDS1403\install\lib\libhpipm.a(d_ocp_qp_dim.c.obj)
 .ARM.attributes
                0x0000000000001860       0x37 C:\Users\Administrator\acados_neu\buildDS1403\install\lib\libhpipm.a(d_ocp_qp_ipm.c.obj)
 .ARM.attributes
                0x0000000000001897       0x37 C:\Users\Administrator\acados_neu\buildDS1403\install\lib\libhpipm.a(d_ocp_qp_kkt.c.obj)
 .ARM.attributes
                0x00000000000018ce       0x37 C:\Users\Administrator\acados_neu\buildDS1403\install\lib\libhpipm.a(d_ocp_qp_red.c.obj)
 .ARM.attributes
                0x0000000000001905       0x37 C:\Users\Administrator\acados_neu\buildDS1403\install\lib\libhpipm.a(d_ocp_qp_res.c.obj)
 .ARM.attributes
                0x000000000000193c       0x37 C:\Users\Administrator\acados_neu\buildDS1403\install\lib\libhpipm.a(d_ocp_qp_sol.c.obj)
 .ARM.attributes
                0x0000000000001973       0x37 C:\Users\Administrator\acados_neu\buildDS1403\install\lib\libhpipm.a(aux_mem.c.obj)
 .ARM.attributes
                0x00000000000019aa       0x37 C:\Users\Administrator\acados_neu\buildDS1403\install\lib\libhpipm.a(aux_string.c.obj)
 .ARM.attributes
                0x00000000000019e1       0x37 C:\Users\Administrator\acados_neu\buildDS1403\install\lib\libblasfeo.a(d_blas2_diag_lib.c.obj)
 .ARM.attributes
                0x0000000000001a18       0x37 c:/program files/dspace rcphil 2021-a/compiler/linux440_550/target/arm-linux-gnueabihf/bin/../lib\libc_nonshared.a(elf-init.oS)
 .ARM.attributes
                0x0000000000001a4f       0x37 c:/program files/dspace rcphil 2021-a/compiler/linux440_550/target/arm-linux-gnueabihf/bin/../lib/gcc/arm-linux-gnueabihf/5.5.0/crtend.o
 .ARM.attributes
                0x0000000000001a86       0x25 c:/program files/dspace rcphil 2021-a/compiler/linux440_550/target/arm-linux-gnueabihf/bin/../lib/crtn.o

.debug
 *(.debug)

.line
 *(.line)

.debug_srcinfo
 *(.debug_srcinfo)

.debug_sfnames
 *(.debug_sfnames)

.debug_aranges  0x0000000000000000       0xb0
 *(.debug_aranges)
 .debug_aranges
                0x0000000000000000       0x38 c:/program files/dspace rcphil 2021-a/compiler/linux440_550/target/arm-linux-gnueabihf/bin/../lib/crt1.o
 .debug_aranges
                0x0000000000000038       0x30 c:/program files/dspace rcphil 2021-a/compiler/linux440_550/target/arm-linux-gnueabihf/bin/../lib/crti.o
 .debug_aranges
                0x0000000000000068       0x20 c:/program files/dspace rcphil 2021-a/compiler/linux440_550/target/arm-linux-gnueabihf/bin/../lib\libc_nonshared.a(elf-init.oS)
 .debug_aranges
                0x0000000000000088       0x28 c:/program files/dspace rcphil 2021-a/compiler/linux440_550/target/arm-linux-gnueabihf/bin/../lib/crtn.o

.debug_pubnames
 *(.debug_pubnames)

.debug_info     0x0000000000000000      0x2f4
 *(.debug_info .gnu.linkonce.wi.*)
 .debug_info    0x0000000000000000       0xf3 c:/program files/dspace rcphil 2021-a/compiler/linux440_550/target/arm-linux-gnueabihf/bin/../lib/crt1.o
 .debug_info    0x00000000000000f3       0x66 c:/program files/dspace rcphil 2021-a/compiler/linux440_550/target/arm-linux-gnueabihf/bin/../lib/crti.o
 .debug_info    0x0000000000000159      0x135 c:/program files/dspace rcphil 2021-a/compiler/linux440_550/target/arm-linux-gnueabihf/bin/../lib\libc_nonshared.a(elf-init.oS)
 .debug_info    0x000000000000028e       0x66 c:/program files/dspace rcphil 2021-a/compiler/linux440_550/target/arm-linux-gnueabihf/bin/../lib/crtn.o

.debug_abbrev   0x0000000000000000      0x183
 *(.debug_abbrev)
 .debug_abbrev  0x0000000000000000       0x52 c:/program files/dspace rcphil 2021-a/compiler/linux440_550/target/arm-linux-gnueabihf/bin/../lib/crt1.o
 .debug_abbrev  0x0000000000000052       0x12 c:/program files/dspace rcphil 2021-a/compiler/linux440_550/target/arm-linux-gnueabihf/bin/../lib/crti.o
 .debug_abbrev  0x0000000000000064      0x10d c:/program files/dspace rcphil 2021-a/compiler/linux440_550/target/arm-linux-gnueabihf/bin/../lib\libc_nonshared.a(elf-init.oS)
 .debug_abbrev  0x0000000000000171       0x12 c:/program files/dspace rcphil 2021-a/compiler/linux440_550/target/arm-linux-gnueabihf/bin/../lib/crtn.o

.debug_line     0x0000000000000000      0x1fc
 *(.debug_line .debug_line.* .debug_line_end)
 .debug_line    0x0000000000000000       0x80 c:/program files/dspace rcphil 2021-a/compiler/linux440_550/target/arm-linux-gnueabihf/bin/../lib/crt1.o
 .debug_line    0x0000000000000080       0x6c c:/program files/dspace rcphil 2021-a/compiler/linux440_550/target/arm-linux-gnueabihf/bin/../lib/crti.o
 .debug_line    0x00000000000000ec       0xbc c:/program files/dspace rcphil 2021-a/compiler/linux440_550/target/arm-linux-gnueabihf/bin/../lib\libc_nonshared.a(elf-init.oS)
 .debug_line    0x00000000000001a8       0x54 c:/program files/dspace rcphil 2021-a/compiler/linux440_550/target/arm-linux-gnueabihf/bin/../lib/crtn.o

.debug_frame    0x0000000000000000       0x44
 *(.debug_frame)
 .debug_frame   0x0000000000000000       0x44 c:/program files/dspace rcphil 2021-a/compiler/linux440_550/target/arm-linux-gnueabihf/bin/../lib\libc_nonshared.a(elf-init.oS)

.debug_str      0x0000000000000000      0x2b0
 *(.debug_str)
 .debug_str     0x0000000000000000      0x16b c:/program files/dspace rcphil 2021-a/compiler/linux440_550/target/arm-linux-gnueabihf/bin/../lib/crt1.o
                                        0x1ab (size before relaxing)
 .debug_str     0x000000000000016b      0x145 c:/program files/dspace rcphil 2021-a/compiler/linux440_550/target/arm-linux-gnueabihf/bin/../lib\libc_nonshared.a(elf-init.oS)
                                        0x18b (size before relaxing)

.debug_loc      0x0000000000000000       0xbb
 *(.debug_loc)
 .debug_loc     0x0000000000000000       0xbb c:/program files/dspace rcphil 2021-a/compiler/linux440_550/target/arm-linux-gnueabihf/bin/../lib\libc_nonshared.a(elf-init.oS)

.debug_macinfo
 *(.debug_macinfo)

.debug_weaknames
 *(.debug_weaknames)

.debug_funcnames
 *(.debug_funcnames)

.debug_typenames
 *(.debug_typenames)

.debug_varnames
 *(.debug_varnames)

.debug_pubtypes
 *(.debug_pubtypes)

.debug_ranges   0x0000000000000000       0x70
 *(.debug_ranges)
 .debug_ranges  0x0000000000000000       0x28 c:/program files/dspace rcphil 2021-a/compiler/linux440_550/target/arm-linux-gnueabihf/bin/../lib/crti.o
 .debug_ranges  0x0000000000000028       0x28 c:/program files/dspace rcphil 2021-a/compiler/linux440_550/target/arm-linux-gnueabihf/bin/../lib\libc_nonshared.a(elf-init.oS)
 .debug_ranges  0x0000000000000050       0x20 c:/program files/dspace rcphil 2021-a/compiler/linux440_550/target/arm-linux-gnueabihf/bin/../lib/crtn.o

.debug_macro
 *(.debug_macro)

.gnu.attributes
 *(.gnu.attributes)

.note.gnu.arm.ident
 *(.note.gnu.arm.ident)

/DISCARD/
 *(.note.GNU-stack)
 *(.gnu_debuglink)
 *(.gnu.lto_*)
OUTPUT(Furuta_Model.arm elf32-littlearm)
